	.file	"atomic.c"
	.option nopic
	.attribute arch, "rv32i2p0_m2p0_a2p0_c2p0"
	.attribute unaligned_access, 0
	.attribute stack_align, 16
	.text
.Ltext0:
	.cfi_sections	.debug_frame
	.section	.text.metal_atomic_available,"ax",@progbits
	.align	1
	.globl	metal_atomic_available
	.type	metal_atomic_available, @function
metal_atomic_available:
.LFB0:
	.file 1 "/home/gra2p/Documents/uva_courses/rp1/src/freedom-metal/metal/atomic.h"
	.loc 1 31 49
	.cfi_startproc
	addi	sp,sp,-16
	.cfi_def_cfa_offset 16
	sw	s0,12(sp)
	.cfi_offset 8, -4
	addi	s0,sp,16
	.cfi_def_cfa 8, 0
	.loc 1 33 12
	li	a5,1
	.loc 1 37 1
	mv	a0,a5
	lw	s0,12(sp)
	.cfi_restore 8
	.cfi_def_cfa 2, 16
	addi	sp,sp,16
	.cfi_def_cfa_offset 0
	jr	ra
	.cfi_endproc
.LFE0:
	.size	metal_atomic_available, .-metal_atomic_available
	.section	.text.metal_atomic_add,"ax",@progbits
	.align	1
	.globl	metal_atomic_add
	.type	metal_atomic_add, @function
metal_atomic_add:
.LFB1:
	.loc 1 50 75
	.cfi_startproc
	addi	sp,sp,-48
	.cfi_def_cfa_offset 48
	sw	s0,44(sp)
	.cfi_offset 8, -4
	addi	s0,sp,48
	.cfi_def_cfa 8, 0
	sw	a0,-36(s0)
	sw	a1,-40(s0)
	.loc 1 53 5
	lw	a5,-40(s0)
	lw	a4,-36(s0)
 #APP
# 53 "/home/gra2p/Documents/uva_courses/rp1/src/freedom-metal/metal/atomic.h" 1
	amoadd.w a5, a5, (a4)
# 0 "" 2
 #NO_APP
	sw	a5,-20(s0)
	.loc 1 57 12
	lw	a5,-20(s0)
	.loc 1 61 1
	mv	a0,a5
	lw	s0,44(sp)
	.cfi_restore 8
	.cfi_def_cfa 2, 48
	addi	sp,sp,48
	.cfi_def_cfa_offset 0
	jr	ra
	.cfi_endproc
.LFE1:
	.size	metal_atomic_add, .-metal_atomic_add
	.section	.text.metal_atomic_and,"ax",@progbits
	.align	1
	.globl	metal_atomic_and
	.type	metal_atomic_and, @function
metal_atomic_and:
.LFB2:
	.loc 1 74 70
	.cfi_startproc
	addi	sp,sp,-48
	.cfi_def_cfa_offset 48
	sw	s0,44(sp)
	.cfi_offset 8, -4
	addi	s0,sp,48
	.cfi_def_cfa 8, 0
	sw	a0,-36(s0)
	sw	a1,-40(s0)
	.loc 1 77 5
	lw	a5,-40(s0)
	lw	a4,-36(s0)
 #APP
# 77 "/home/gra2p/Documents/uva_courses/rp1/src/freedom-metal/metal/atomic.h" 1
	amoand.w a5, a5, (a4)
# 0 "" 2
 #NO_APP
	sw	a5,-20(s0)
	.loc 1 81 12
	lw	a5,-20(s0)
	.loc 1 85 1
	mv	a0,a5
	lw	s0,44(sp)
	.cfi_restore 8
	.cfi_def_cfa 2, 48
	addi	sp,sp,48
	.cfi_def_cfa_offset 0
	jr	ra
	.cfi_endproc
.LFE2:
	.size	metal_atomic_and, .-metal_atomic_and
	.section	.text.metal_atomic_or,"ax",@progbits
	.align	1
	.globl	metal_atomic_or
	.type	metal_atomic_or, @function
metal_atomic_or:
.LFB3:
	.loc 1 98 69
	.cfi_startproc
	addi	sp,sp,-48
	.cfi_def_cfa_offset 48
	sw	s0,44(sp)
	.cfi_offset 8, -4
	addi	s0,sp,48
	.cfi_def_cfa 8, 0
	sw	a0,-36(s0)
	sw	a1,-40(s0)
	.loc 1 101 5
	lw	a5,-40(s0)
	lw	a4,-36(s0)
 #APP
# 101 "/home/gra2p/Documents/uva_courses/rp1/src/freedom-metal/metal/atomic.h" 1
	amoor.w a5, a5, (a4)
# 0 "" 2
 #NO_APP
	sw	a5,-20(s0)
	.loc 1 105 12
	lw	a5,-20(s0)
	.loc 1 109 1
	mv	a0,a5
	lw	s0,44(sp)
	.cfi_restore 8
	.cfi_def_cfa 2, 48
	addi	sp,sp,48
	.cfi_def_cfa_offset 0
	jr	ra
	.cfi_endproc
.LFE3:
	.size	metal_atomic_or, .-metal_atomic_or
	.section	.text.metal_atomic_swap,"ax",@progbits
	.align	1
	.globl	metal_atomic_swap
	.type	metal_atomic_swap, @function
metal_atomic_swap:
.LFB4:
	.loc 1 122 76
	.cfi_startproc
	addi	sp,sp,-48
	.cfi_def_cfa_offset 48
	sw	s0,44(sp)
	.cfi_offset 8, -4
	addi	s0,sp,48
	.cfi_def_cfa 8, 0
	sw	a0,-36(s0)
	sw	a1,-40(s0)
	.loc 1 125 5
	lw	a5,-40(s0)
	lw	a4,-36(s0)
 #APP
# 125 "/home/gra2p/Documents/uva_courses/rp1/src/freedom-metal/metal/atomic.h" 1
	amoswap.w a5, a5, (a4)
# 0 "" 2
 #NO_APP
	sw	a5,-20(s0)
	.loc 1 129 12
	lw	a5,-20(s0)
	.loc 1 133 1
	mv	a0,a5
	lw	s0,44(sp)
	.cfi_restore 8
	.cfi_def_cfa 2, 48
	addi	sp,sp,48
	.cfi_def_cfa_offset 0
	jr	ra
	.cfi_endproc
.LFE4:
	.size	metal_atomic_swap, .-metal_atomic_swap
	.section	.text.metal_atomic_xor,"ax",@progbits
	.align	1
	.globl	metal_atomic_xor
	.type	metal_atomic_xor, @function
metal_atomic_xor:
.LFB5:
	.loc 1 146 70
	.cfi_startproc
	addi	sp,sp,-48
	.cfi_def_cfa_offset 48
	sw	s0,44(sp)
	.cfi_offset 8, -4
	addi	s0,sp,48
	.cfi_def_cfa 8, 0
	sw	a0,-36(s0)
	sw	a1,-40(s0)
	.loc 1 149 5
	lw	a5,-40(s0)
	lw	a4,-36(s0)
 #APP
# 149 "/home/gra2p/Documents/uva_courses/rp1/src/freedom-metal/metal/atomic.h" 1
	amoxor.w a5, a5, (a4)
# 0 "" 2
 #NO_APP
	sw	a5,-20(s0)
	.loc 1 153 12
	lw	a5,-20(s0)
	.loc 1 157 1
	mv	a0,a5
	lw	s0,44(sp)
	.cfi_restore 8
	.cfi_def_cfa 2, 48
	addi	sp,sp,48
	.cfi_def_cfa_offset 0
	jr	ra
	.cfi_endproc
.LFE5:
	.size	metal_atomic_xor, .-metal_atomic_xor
	.section	.text.metal_atomic_max,"ax",@progbits
	.align	1
	.globl	metal_atomic_max
	.type	metal_atomic_max, @function
metal_atomic_max:
.LFB6:
	.loc 1 171 73
	.cfi_startproc
	addi	sp,sp,-48
	.cfi_def_cfa_offset 48
	sw	s0,44(sp)
	.cfi_offset 8, -4
	addi	s0,sp,48
	.cfi_def_cfa 8, 0
	sw	a0,-36(s0)
	sw	a1,-40(s0)
	.loc 1 174 5
	lw	a5,-40(s0)
	lw	a4,-36(s0)
 #APP
# 174 "/home/gra2p/Documents/uva_courses/rp1/src/freedom-metal/metal/atomic.h" 1
	amomax.w a5, a5, (a4)
# 0 "" 2
 #NO_APP
	sw	a5,-20(s0)
	.loc 1 178 12
	lw	a5,-20(s0)
	.loc 1 182 1
	mv	a0,a5
	lw	s0,44(sp)
	.cfi_restore 8
	.cfi_def_cfa 2, 48
	addi	sp,sp,48
	.cfi_def_cfa_offset 0
	jr	ra
	.cfi_endproc
.LFE6:
	.size	metal_atomic_max, .-metal_atomic_max
	.section	.text.metal_atomic_max_u,"ax",@progbits
	.align	1
	.globl	metal_atomic_max_u
	.type	metal_atomic_max_u, @function
metal_atomic_max_u:
.LFB7:
	.loc 1 196 77
	.cfi_startproc
	addi	sp,sp,-48
	.cfi_def_cfa_offset 48
	sw	s0,44(sp)
	.cfi_offset 8, -4
	addi	s0,sp,48
	.cfi_def_cfa 8, 0
	sw	a0,-36(s0)
	sw	a1,-40(s0)
	.loc 1 199 5
	lw	a5,-40(s0)
	lw	a4,-36(s0)
 #APP
# 199 "/home/gra2p/Documents/uva_courses/rp1/src/freedom-metal/metal/atomic.h" 1
	amomaxu.w a5, a5, (a4)
# 0 "" 2
 #NO_APP
	sw	a5,-20(s0)
	.loc 1 203 12
	lw	a5,-20(s0)
	.loc 1 207 1
	mv	a0,a5
	lw	s0,44(sp)
	.cfi_restore 8
	.cfi_def_cfa 2, 48
	addi	sp,sp,48
	.cfi_def_cfa_offset 0
	jr	ra
	.cfi_endproc
.LFE7:
	.size	metal_atomic_max_u, .-metal_atomic_max_u
	.section	.text.metal_atomic_min,"ax",@progbits
	.align	1
	.globl	metal_atomic_min
	.type	metal_atomic_min, @function
metal_atomic_min:
.LFB8:
	.loc 1 221 73
	.cfi_startproc
	addi	sp,sp,-48
	.cfi_def_cfa_offset 48
	sw	s0,44(sp)
	.cfi_offset 8, -4
	addi	s0,sp,48
	.cfi_def_cfa 8, 0
	sw	a0,-36(s0)
	sw	a1,-40(s0)
	.loc 1 224 5
	lw	a5,-40(s0)
	lw	a4,-36(s0)
 #APP
# 224 "/home/gra2p/Documents/uva_courses/rp1/src/freedom-metal/metal/atomic.h" 1
	amomin.w a5, a5, (a4)
# 0 "" 2
 #NO_APP
	sw	a5,-20(s0)
	.loc 1 228 12
	lw	a5,-20(s0)
	.loc 1 232 1
	mv	a0,a5
	lw	s0,44(sp)
	.cfi_restore 8
	.cfi_def_cfa 2, 48
	addi	sp,sp,48
	.cfi_def_cfa_offset 0
	jr	ra
	.cfi_endproc
.LFE8:
	.size	metal_atomic_min, .-metal_atomic_min
	.section	.text.metal_atomic_min_u,"ax",@progbits
	.align	1
	.globl	metal_atomic_min_u
	.type	metal_atomic_min_u, @function
metal_atomic_min_u:
.LFB9:
	.loc 1 246 77
	.cfi_startproc
	addi	sp,sp,-48
	.cfi_def_cfa_offset 48
	sw	s0,44(sp)
	.cfi_offset 8, -4
	addi	s0,sp,48
	.cfi_def_cfa 8, 0
	sw	a0,-36(s0)
	sw	a1,-40(s0)
	.loc 1 249 5
	lw	a5,-40(s0)
	lw	a4,-36(s0)
 #APP
# 249 "/home/gra2p/Documents/uva_courses/rp1/src/freedom-metal/metal/atomic.h" 1
	amominu.w a5, a5, (a4)
# 0 "" 2
 #NO_APP
	sw	a5,-20(s0)
	.loc 1 253 12
	lw	a5,-20(s0)
	.loc 1 257 1
	mv	a0,a5
	lw	s0,44(sp)
	.cfi_restore 8
	.cfi_def_cfa 2, 48
	addi	sp,sp,48
	.cfi_def_cfa_offset 0
	jr	ra
	.cfi_endproc
.LFE9:
	.size	metal_atomic_min_u, .-metal_atomic_min_u
	.text
.Letext0:
	.file 2 "/home/gra2p/Documents/uva_courses/rp1/tools/riscv64-unknown-elf-toolchain-10.2.0-2020.12.8-x86_64-linux-ubuntu14/riscv64-unknown-elf/include/machine/_default_types.h"
	.file 3 "/home/gra2p/Documents/uva_courses/rp1/tools/riscv64-unknown-elf-toolchain-10.2.0-2020.12.8-x86_64-linux-ubuntu14/riscv64-unknown-elf/include/sys/_stdint.h"