	.file	"pmp.c"
	.option nopic
	.attribute arch, "rv32i2p0_m2p0_a2p0_c2p0"
	.attribute unaligned_access, 0
	.attribute stack_align, 16
	.text
.Ltext0:
	.cfi_sections	.debug_frame
	.section	.text.__metal_driver_cpu_num_pmp_regions,"ax",@progbits
	.align	1
	.type	__metal_driver_cpu_num_pmp_regions, @function
__metal_driver_cpu_num_pmp_regions:
.LFB136:
	.file 1 "./metal/machine.h"
	.loc 1 322 1
	.cfi_startproc
	addi	sp,sp,-32
	.cfi_def_cfa_offset 32
	sw	s0,28(sp)
	.cfi_offset 8, -4
	addi	s0,sp,32
	.cfi_def_cfa 8, 0
	sw	a0,-20(s0)
	.loc 1 323 6
	lw	a4,-20(s0)
	.loc 1 323 24
	lui	a5,%hi(__metal_dt_cpu_0)
	addi	a5,a5,%lo(__metal_dt_cpu_0)
	.loc 1 323 5
	bne	a4,a5,.L2
	.loc 1 324 10
	li	a5,8
	j	.L3
.L2:
	.loc 1 327 10
	li	a5,0
.L3:
	.loc 1 329 1
	mv	a0,a5
	lw	s0,28(sp)
	.cfi_restore 8
	.cfi_def_cfa 2, 32
	addi	sp,sp,32
	.cfi_def_cfa_offset 0
	jr	ra
	.cfi_endproc
.LFE136:
	.size	__metal_driver_cpu_num_pmp_regions, .-__metal_driver_cpu_num_pmp_regions
	.weak	__metal_memory_table
	.section	.data.__metal_memory_table,"aw"
	.align	2
	.type	__metal_memory_table, @object
	.size	__metal_memory_table, 12
__metal_memory_table:
	.word	__metal_dt_mem_dtim_80000000
	.word	__metal_dt_mem_itim_8000000
	.word	__metal_dt_mem_spi_10014000
	.weak	__metal_cpu_table
	.section	.sdata.__metal_cpu_table,"aw"
	.align	2
	.type	__metal_cpu_table, @object
	.size	__metal_cpu_table, 4
__metal_cpu_table:
	.word	__metal_dt_cpu_0
	.weak	__metal_gpio_table
	.section	.sdata.__metal_gpio_table,"aw"
	.align	2
	.type	__metal_gpio_table, @object
	.size	__metal_gpio_table, 4
__metal_gpio_table:
	.word	__metal_dt_gpio_10012000
	.weak	__metal_button_table
	.section	.sbss.__metal_button_table,"aw",@nobits
	.align	2
	.type	__metal_button_table, @object
	.size	__metal_button_table, 4
__metal_button_table:
	.zero	4
	.weak	__metal_led_table
	.section	.data.__metal_led_table,"aw"
	.align	2
	.type	__metal_led_table, @object
	.size	__metal_led_table, 12
__metal_led_table:
	.word	__metal_dt_led_0
	.word	__metal_dt_led_1
	.word	__metal_dt_led_2
	.weak	__metal_switch_table
	.section	.sbss.__metal_switch_table,"aw",@nobits
	.align	2
	.type	__metal_switch_table, @object
	.size	__metal_switch_table, 4
__metal_switch_table:
	.zero	4
	.weak	__metal_i2c_table
	.section	.sdata.__metal_i2c_table,"aw"
	.align	2
	.type	__metal_i2c_table, @object
	.size	__metal_i2c_table, 4
__metal_i2c_table:
	.word	__metal_dt_i2c_10016000
	.weak	__metal_pwm_table
	.section	.data.__metal_pwm_table,"aw"
	.align	2
	.type	__metal_pwm_table, @object
	.size	__metal_pwm_table, 12
__metal_pwm_table:
	.word	__metal_dt_pwm_10015000
	.word	__metal_dt_pwm_10025000
	.word	__metal_dt_pwm_10035000
	.weak	__metal_rtc_table
	.section	.sdata.__metal_rtc_table,"aw"
	.align	2
	.type	__metal_rtc_table, @object
	.size	__metal_rtc_table, 4
__metal_rtc_table:
	.word	__metal_dt_rtc_10000000
	.weak	__metal_spi_table
	.section	.data.__metal_spi_table,"aw"
	.align	2
	.type	__metal_spi_table, @object
	.size	__metal_spi_table, 12
__metal_spi_table:
	.word	__metal_dt_spi_10014000
	.word	__metal_dt_spi_10024000
	.word	__metal_dt_spi_10034000
	.weak	__metal_uart_table
	.section	.sdata.__metal_uart_table,"aw"
	.align	2
	.type	__metal_uart_table, @object
	.size	__metal_uart_table, 8
__metal_uart_table:
	.word	__metal_dt_serial_10013000
	.word	__metal_dt_serial_10023000
	.weak	__metal_simuart_table
	.section	.sbss.__metal_simuart_table,"aw",@nobits
	.align	2
	.type	__metal_simuart_table, @object
	.size	__metal_simuart_table, 4
__metal_simuart_table:
	.zero	4
	.weak	__metal_wdog_table
	.section	.sdata.__metal_wdog_table,"aw"
	.align	2
	.type	__metal_wdog_table, @object
	.size	__metal_wdog_table, 4
__metal_wdog_table:
	.word	__metal_dt_aon_10000000
	.section	.text.metal_pmp_get_device,"ax",@progbits
	.align	1
	.globl	metal_pmp_get_device
	.type	metal_pmp_get_device, @function
metal_pmp_get_device:
.LFB219:
	.file 2 "/home/gra2p/Documents/uva_courses/rp1/src/freedom-metal/src/pmp.c"
	.loc 2 11 46
	.cfi_startproc
	addi	sp,sp,-16
	.cfi_def_cfa_offset 16
	sw	s0,12(sp)
	.cfi_offset 8, -4
	addi	s0,sp,16
	.cfi_def_cfa 8, 0
	.loc 2 13 13
	lui	a5,%hi(__metal_dt_pmp)
	addi	a5,a5,%lo(__metal_dt_pmp)
	.loc 2 17 1
	mv	a0,a5
	lw	s0,12(sp)
	.cfi_restore 8
	.cfi_def_cfa 2, 16
	addi	sp,sp,16
	.cfi_def_cfa_offset 0
	jr	ra
	.cfi_endproc
.LFE219:
	.size	metal_pmp_get_device, .-metal_pmp_get_device
	.section	.text._get_detected_granularity,"ax",@progbits
	.align	1
	.type	_get_detected_granularity, @function
_get_detected_granularity:
.LFB220:
	.loc 2 29 63
	.cfi_startproc
	addi	sp,sp,-48
	.cfi_def_cfa_offset 48
	sw	s0,44(sp)
	.cfi_offset 8, -4
	addi	s0,sp,48
	.cfi_def_cfa 8, 0
	sw	a0,-36(s0)
	.loc 2 30 8
	lw	a5,-36(s0)
	bne	a5,zero,.L7
	.loc 2 31 16
	li	a5,-1
	j	.L8
.L7:
	.loc 2 35 9
	sw	zero,-20(s0)
	.loc 2 36 11
	j	.L9
.L10:
	.loc 2 37 15
	lw	a5,-20(s0)
	addi	a5,a5,1
	sw	a5,-20(s0)
.L9:
	.loc 2 36 22
	lw	a5,-20(s0)
	lw	a4,-36(s0)
	srl	a5,a4,a5
	.loc 2 36 32
	andi	a5,a5,1
	.loc 2 36 11
	beq	a5,zero,.L10
	.loc 2 41 25
	lw	a5,-20(s0)
	addi	a5,a5,2
	.loc 2 41 15
	li	a4,1
	sll	a5,a4,a5
.L8:
	.loc 2 42 1
	mv	a0,a5
	lw	s0,44(sp)
	.cfi_restore 8
	.cfi_def_cfa 2, 48
	addi	sp,sp,48
	.cfi_def_cfa_offset 0
	jr	ra
	.cfi_endproc
.LFE220:
	.size	_get_detected_granularity, .-_get_detected_granularity
	.section	.text._get_pmpaddr_granularity,"ax",@progbits
	.align	1
	.type	_get_pmpaddr_granularity, @function
_get_pmpaddr_granularity:
.LFB221:
	.loc 2 54 62
	.cfi_startproc
	addi	sp,sp,-48
	.cfi_def_cfa_offset 48
	sw	s0,44(sp)
	.cfi_offset 8, -4
	addi	s0,sp,48
	.cfi_def_cfa 8, 0
	sw	a0,-36(s0)
	.loc 2 56 9
	sw	zero,-20(s0)
	.loc 2 57 11
	j	.L12
.L13:
	.loc 2 58 15
	lw	a5,-20(s0)
	addi	a5,a5,1
	sw	a5,-20(s0)
.L12:
	.loc 2 57 22
	lw	a5,-20(s0)
	lw	a4,-36(s0)
	srl	a5,a4,a5
	.loc 2 57 32
	andi	a5,a5,1
	.loc 2 57 11
	bne	a5,zero,.L13
	.loc 2 62 25
	lw	a5,-20(s0)
	addi	a5,a5,3
	.loc 2 62 15
	li	a4,1
	sll	a5,a4,a5
	.loc 2 63 1
	mv	a0,a5
	lw	s0,44(sp)
	.cfi_restore 8
	.cfi_def_cfa 2, 48
	addi	sp,sp,48
	.cfi_def_cfa_offset 0
	jr	ra
	.cfi_endproc
.LFE221:
	.size	_get_pmpaddr_granularity, .-_get_pmpaddr_granularity
	.section	.text.metal_pmp_num_regions,"ax",@progbits
	.align	1
	.globl	metal_pmp_num_regions
	.type	metal_pmp_num_regions, @function
metal_pmp_num_regions:
.LFB222:
	.loc 2 66 39
	.cfi_startproc
	addi	sp,sp,-48
	.cfi_def_cfa_offset 48
	sw	ra,44(sp)
	sw	s0,40(sp)
	.cfi_offset 1, -4
	.cfi_offset 8, -8
	addi	s0,sp,48
	.cfi_def_cfa 8, 0
	sw	a0,-36(s0)
	.loc 2 67 29
	lw	a5,-36(s0)
	mv	a0,a5
	call	metal_cpu_get
	sw	a0,-20(s0)
	.loc 2 69 12
	lw	a0,-20(s0)
	call	__metal_driver_cpu_num_pmp_regions
	mv	a5,a0
	.loc 2 70 1
	mv	a0,a5
	lw	ra,44(sp)
	.cfi_restore 1
	lw	s0,40(sp)
	.cfi_restore 8
	.cfi_def_cfa 2, 48
	addi	sp,sp,48
	.cfi_def_cfa_offset 0
	jr	ra
	.cfi_endproc
.LFE222:
	.size	metal_pmp_num_regions, .-metal_pmp_num_regions
	.section	.text._pmp_regions,"ax",@progbits
	.align	1
	.type	_pmp_regions, @function
_pmp_regions:
.LFB223:
	.loc 2 73 36
	.cfi_startproc
	addi	sp,sp,-16
	.cfi_def_cfa_offset 16
	sw	ra,12(sp)
	sw	s0,8(sp)
	.cfi_offset 1, -4
	.cfi_offset 8, -8
	addi	s0,sp,16
	.cfi_def_cfa 8, 0
	.loc 2 74 12
	call	metal_cpu_get_current_hartid
	mv	a5,a0
	mv	a0,a5
	call	metal_pmp_num_regions
	mv	a5,a0
	.loc 2 75 1
	mv	a0,a5
	lw	ra,12(sp)
	.cfi_restore 1
	lw	s0,8(sp)
	.cfi_restore 8
	.cfi_def_cfa 2, 16
	addi	sp,sp,16
	.cfi_def_cfa_offset 0
	jr	ra
	.cfi_endproc
.LFE223:
	.size	_pmp_regions, .-_pmp_regions
	.section	.text.metal_pmp_init,"ax",@progbits
	.align	1
	.globl	metal_pmp_init
	.type	metal_pmp_init, @function
metal_pmp_init:
.LFB224:
	.loc 2 77 44
	.cfi_startproc
	addi	sp,sp,-48
	.cfi_def_cfa_offset 48
	sw	ra,44(sp)
	sw	s0,40(sp)
	sw	s1,36(sp)
	sw	s2,32(sp)
	.cfi_offset 1, -4
	.cfi_offset 8, -8
	.cfi_offset 9, -12
	.cfi_offset 18, -16
	addi	s0,sp,48
	.cfi_def_cfa 8, 0
	sw	a0,-36(s0)
	.loc 2 78 8
	lw	a5,-36(s0)
	beq	a5,zero,.L26
	.loc 2 82 29
	sw	zero,-24(s0)
.LBB2:
	.loc 2 90 23
	sw	zero,-20(s0)
	.loc 2 90 5
	j	.L22
.L23:
	.loc 2 91 9 discriminator 3
	li	a3,0
	lw	a2,-24(s0)
	lw	a1,-20(s0)
	lw	a0,-36(s0)
	call	metal_pmp_set_region
	.loc 2 90 51 discriminator 3
	lw	a5,-20(s0)
	addi	a5,a5,1
	sw	a5,-20(s0)
.L22:
	.loc 2 90 34 discriminator 1
	call	_pmp_regions
	mv	a4,a0
	.loc 2 90 5 discriminator 1
	lw	a5,-20(s0)
	bltu	a5,a4,.L23
.LBE2:
	.loc 2 96 9
	li	a2,-1
	li	a1,0
	lw	a0,-36(s0)
	call	metal_pmp_set_address
	mv	a5,a0
	.loc 2 96 8
	bne	a5,zero,.L27
	.loc 2 103 9
	li	a1,0
	lw	a0,-36(s0)
	call	metal_pmp_get_address
	mv	s2,a0
	.loc 2 102 23
	call	metal_cpu_get_current_hartid
	mv	s1,a0
	.loc 2 103 9
	mv	a0,s2
	call	_get_detected_granularity
	mv	a3,a0
	.loc 2 102 55
	lw	a4,-36(s0)
	slli	a5,s1,2
	add	a5,a4,a5
	sw	a3,0(a5)
	.loc 2 106 5
	li	a2,0
	li	a1,0
	lw	a0,-36(s0)
	call	metal_pmp_set_address
	j	.L19
.L26:
	.loc 2 79 9
	nop
	j	.L19
.L27:
	.loc 2 98 9
	nop
.L19:
	.loc 2 107 1
	lw	ra,44(sp)
	.cfi_restore 1
	lw	s0,40(sp)
	.cfi_restore 8
	.cfi_def_cfa 2, 48
	lw	s1,36(sp)
	.cfi_restore 9
	lw	s2,32(sp)
	.cfi_restore 18
	addi	sp,sp,48
	.cfi_def_cfa_offset 0
	jr	ra
	.cfi_endproc
.LFE224:
	.size	metal_pmp_init, .-metal_pmp_init
	.section	.text.metal_pmp_set_region,"ax",@progbits
	.align	1
	.globl	metal_pmp_set_region
	.type	metal_pmp_set_region, @function
metal_pmp_set_region:
.LFB225:
	.loc 2 110 74
	.cfi_startproc
	addi	sp,sp,-64
	.cfi_def_cfa_offset 64
	sw	ra,60(sp)
	sw	s0,56(sp)
	sw	s1,52(sp)
	.cfi_offset 1, -4
	.cfi_offset 8, -8
	.cfi_offset 9, -12
	addi	s0,sp,64
	.cfi_def_cfa 8, 0
	sw	a0,-52(s0)
	sw	a1,-56(s0)
	sw	a2,-60(s0)
	sw	a3,-64(s0)
	.loc 2 115 9
	sw	zero,-20(s0)
	.loc 2 117 8
	lw	a5,-52(s0)
	bne	a5,zero,.L29
	.loc 2 119 16
	li	a5,1
	j	.L59
.L29:
	.loc 2 122 18
	call	_pmp_regions
	mv	a4,a0
	.loc 2 122 8
	lw	a5,-56(s0)
	bleu	a5,a4,.L31
	.loc 2 124 16
	li	a5,2
	j	.L59
.L31:
	.loc 2 127 18
	lbu	a5,-60(s0)
	andi	a5,a5,24
	andi	a4,a5,0xff
	.loc 2 127 8
	li	a5,16
	bne	a4,a5,.L32
	.loc 2 128 27 discriminator 1
	call	metal_cpu_get_current_hartid
	mv	a5,a0
	.loc 2 128 26 discriminator 1
	lw	a4,-52(s0)
	slli	a5,a5,2
	add	a5,a4,a5
	lw	a4,0(a5)
	.loc 2 127 35 discriminator 1
	li	a5,4
	bleu	a4,a5,.L32
	.loc 2 130 16
	li	a5,3
	j	.L59
.L32:
	.loc 2 133 18
	lbu	a5,-60(s0)
	andi	a5,a5,24
	andi	a4,a5,0xff
	.loc 2 133 8
	li	a5,24
	bne	a4,a5,.L33
	.loc 2 134 27 discriminator 1
	call	metal_cpu_get_current_hartid
	mv	a5,a0
	.loc 2 134 26 discriminator 1
	lw	a4,-52(s0)
	slli	a5,a5,2
	add	a5,a4,a5
	lw	s1,0(a5)
	.loc 2 135 13 discriminator 1
	lw	a0,-64(s0)
	call	_get_pmpaddr_granularity
	mv	a5,a0
	.loc 2 133 37 discriminator 1
	bleu	s1,a5,.L33
	.loc 2 137 16
	li	a5,3
	j	.L59
.L33:
	.loc 2 140 10
	addi	a4,s0,-36
	addi	a5,s0,-32
	mv	a3,a4
	mv	a2,a5
	lw	a1,-56(s0)
	lw	a0,-52(s0)
	call	metal_pmp_get_region
	sw	a0,-20(s0)
	.loc 2 141 8
	lw	a5,-20(s0)
	beq	a5,zero,.L34
	.loc 2 143 16
	lw	a5,-20(s0)
	j	.L59
.L34:
	.loc 2 146 22
	lbu	a5,-32(s0)
	andi	a5,a5,-128
	andi	a5,a5,0xff
	.loc 2 146 8
	beq	a5,zero,.L35
	.loc 2 148 16
	li	a5,4
	j	.L59
.L35:
	.loc 2 153 21
	lw	a5,-36(s0)
	.loc 2 153 8
	lw	a4,-64(s0)
	beq	a4,a5,.L60
	lw	a4,-56(s0)
	li	a5,15
	bgtu	a4,a5,.L36
	lw	a5,-56(s0)
	slli	a4,a5,2
	lui	a5,%hi(.L38)
	addi	a5,a5,%lo(.L38)
	add	a5,a4,a5
	lw	a5,0(a5)
	jr	a5
	.section	.rodata.metal_pmp_set_region,"a",@progbits
	.align	2
	.align	2
.L38:
	.word	.L53
	.word	.L52
	.word	.L51
	.word	.L50
	.word	.L49
	.word	.L48
	.word	.L47
	.word	.L46
	.word	.L45
	.word	.L44
	.word	.L43
	.word	.L42
	.word	.L41
	.word	.L40
	.word	.L39
	.word	.L37
	.section	.text.metal_pmp_set_region
.L53:
	.loc 2 156 13
	lw	a5,-64(s0)
 #APP
# 156 "/home/gra2p/Documents/uva_courses/rp1/src/freedom-metal/src/pmp.c" 1
	csrw pmpaddr0, a5
# 0 "" 2
	.loc 2 157 13
 #NO_APP
	j	.L36
.L52:
	.loc 2 159 13
	lw	a5,-64(s0)
 #APP
# 159 "/home/gra2p/Documents/uva_courses/rp1/src/freedom-metal/src/pmp.c" 1
	csrw pmpaddr1, a5
# 0 "" 2
	.loc 2 160 13
 #NO_APP
	j	.L36
.L51:
	.loc 2 162 13
	lw	a5,-64(s0)
 #APP
# 162 "/home/gra2p/Documents/uva_courses/rp1/src/freedom-metal/src/pmp.c" 1
	csrw pmpaddr2, a5
# 0 "" 2
	.loc 2 163 13
 #NO_APP
	j	.L36
.L50:
	.loc 2 165 13
	lw	a5,-64(s0)
 #APP
# 165 "/home/gra2p/Documents/uva_courses/rp1/src/freedom-metal/src/pmp.c" 1
	csrw pmpaddr3, a5
# 0 "" 2
	.loc 2 166 13
 #NO_APP
	j	.L36
.L49:
	.loc 2 168 13
	lw	a5,-64(s0)
 #APP
# 168 "/home/gra2p/Documents/uva_courses/rp1/src/freedom-metal/src/pmp.c" 1
	csrw pmpaddr4, a5
# 0 "" 2
	.loc 2 169 13
 #NO_APP
	j	.L36
.L48:
	.loc 2 171 13
	lw	a5,-64(s0)
 #APP
# 171 "/home/gra2p/Documents/uva_courses/rp1/src/freedom-metal/src/pmp.c" 1
	csrw pmpaddr5, a5
# 0 "" 2
	.loc 2 172 13
 #NO_APP
	j	.L36
.L47:
	.loc 2 174 13
	lw	a5,-64(s0)
 #APP
# 174 "/home/gra2p/Documents/uva_courses/rp1/src/freedom-metal/src/pmp.c" 1
	csrw pmpaddr6, a5
# 0 "" 2
	.loc 2 175 13
 #NO_APP
	j	.L36
.L46:
	.loc 2 177 13
	lw	a5,-64(s0)
 #APP
# 177 "/home/gra2p/Documents/uva_courses/rp1/src/freedom-metal/src/pmp.c" 1
	csrw pmpaddr7, a5
# 0 "" 2
	.loc 2 178 13
 #NO_APP
	j	.L36
.L45:
	.loc 2 180 13
	lw	a5,-64(s0)
 #APP
# 180 "/home/gra2p/Documents/uva_courses/rp1/src/freedom-metal/src/pmp.c" 1
	csrw pmpaddr8, a5
# 0 "" 2
	.loc 2 181 13
 #NO_APP
	j	.L36
.L44:
	.loc 2 183 13
	lw	a5,-64(s0)
 #APP
# 183 "/home/gra2p/Documents/uva_courses/rp1/src/freedom-metal/src/pmp.c" 1
	csrw pmpaddr9, a5
# 0 "" 2
	.loc 2 184 13
 #NO_APP
	j	.L36
.L43:
	.loc 2 186 13
	lw	a5,-64(s0)
 #APP
# 186 "/home/gra2p/Documents/uva_courses/rp1/src/freedom-metal/src/pmp.c" 1
	csrw pmpaddr10, a5
# 0 "" 2
	.loc 2 187 13
 #NO_APP
	j	.L36
.L42:
	.loc 2 189 13
	lw	a5,-64(s0)
 #APP
# 189 "/home/gra2p/Documents/uva_courses/rp1/src/freedom-metal/src/pmp.c" 1
	csrw pmpaddr11, a5
# 0 "" 2
	.loc 2 190 13
 #NO_APP
	j	.L36
.L41:
	.loc 2 192 13
	lw	a5,-64(s0)
 #APP
# 192 "/home/gra2p/Documents/uva_courses/rp1/src/freedom-metal/src/pmp.c" 1
	csrw pmpaddr12, a5
# 0 "" 2
	.loc 2 193 13
 #NO_APP
	j	.L36
.L40:
	.loc 2 195 13
	lw	a5,-64(s0)
 #APP
# 195 "/home/gra2p/Documents/uva_courses/rp1/src/freedom-metal/src/pmp.c" 1
	csrw pmpaddr13, a5
# 0 "" 2
	.loc 2 196 13
 #NO_APP
	j	.L36
.L39:
	.loc 2 198 13
	lw	a5,-64(s0)
 #APP
# 198 "/home/gra2p/Documents/uva_courses/rp1/src/freedom-metal/src/pmp.c" 1
	csrw pmpaddr14, a5
# 0 "" 2
	.loc 2 199 13
 #NO_APP
	j	.L36
.L37:
	.loc 2 201 13
	lw	a5,-64(s0)
 #APP
# 201 "/home/gra2p/Documents/uva_courses/rp1/src/freedom-metal/src/pmp.c" 1
	csrw pmpaddr15, a5
# 0 "" 2
	.loc 2 202 13
 #NO_APP
	j	.L36
.L60:
	.loc 2 204 5
	nop
.L36:
	.loc 2 207 20
	addi	a5,s0,-32
	.loc 2 207 10
	lbu	a4,0(a5)
	.loc 2 207 50
	addi	a5,s0,-60
	.loc 2 207 40
	lbu	a5,0(a5)
	.loc 2 207 8
	beq	a4,a5,.L61
	.loc 2 209 41
	lw	a5,-56(s0)
	andi	a5,a5,3
	.loc 2 209 31
	slli	a5,a5,3
	.loc 2 209 25
	li	a4,255
	sll	a5,a4,a5
	.loc 2 209 17
	sw	a5,-24(s0)
	.loc 2 210 30
	addi	a5,s0,-60
	.loc 2 210 20
	lbu	a5,0(a5)
	mv	a4,a5
	.loc 2 210 58
	lw	a5,-56(s0)
	andi	a5,a5,3
	.loc 2 210 48
	slli	a5,a5,3
	.loc 2 210 42
	sll	a5,a4,a5
	.loc 2 210 16
	sw	a5,-28(s0)
	.loc 2 212 24
	lw	a5,-56(s0)
	srli	a5,a5,2
	.loc 2 212 9
	li	a4,3
	beq	a5,a4,.L55
	li	a4,3
	bgtu	a5,a4,.L54
	li	a4,2
	beq	a5,a4,.L56
	li	a4,2
	bgtu	a5,a4,.L54
	beq	a5,zero,.L57
	li	a4,1
	beq	a5,a4,.L58
	j	.L54
.L57:
	.loc 2 214 13
	lw	a5,-24(s0)
 #APP
# 214 "/home/gra2p/Documents/uva_courses/rp1/src/freedom-metal/src/pmp.c" 1
	csrc pmpcfg0, a5
# 0 "" 2
	.loc 2 216 13
 #NO_APP
	lw	a5,-28(s0)
 #APP
# 216 "/home/gra2p/Documents/uva_courses/rp1/src/freedom-metal/src/pmp.c" 1
	csrs pmpcfg0, a5
# 0 "" 2
	.loc 2 217 13
 #NO_APP
	j	.L54
.L58:
	.loc 2 219 13
	lw	a5,-24(s0)
 #APP
# 219 "/home/gra2p/Documents/uva_courses/rp1/src/freedom-metal/src/pmp.c" 1
	csrc pmpcfg1, a5
# 0 "" 2
	.loc 2 221 13
 #NO_APP
	lw	a5,-28(s0)
 #APP
# 221 "/home/gra2p/Documents/uva_courses/rp1/src/freedom-metal/src/pmp.c" 1
	csrs pmpcfg1, a5
# 0 "" 2
	.loc 2 222 13
 #NO_APP
	j	.L54
.L56:
	.loc 2 224 13
	lw	a5,-24(s0)
 #APP
# 224 "/home/gra2p/Documents/uva_courses/rp1/src/freedom-metal/src/pmp.c" 1
	csrc pmpcfg2, a5
# 0 "" 2
	.loc 2 226 13
 #NO_APP
	lw	a5,-28(s0)
 #APP
# 226 "/home/gra2p/Documents/uva_courses/rp1/src/freedom-metal/src/pmp.c" 1
	csrs pmpcfg2, a5
# 0 "" 2
	.loc 2 227 13
 #NO_APP
	j	.L54
.L55:
	.loc 2 229 13
	lw	a5,-24(s0)
 #APP
# 229 "/home/gra2p/Documents/uva_courses/rp1/src/freedom-metal/src/pmp.c" 1
	csrc pmpcfg3, a5
# 0 "" 2
	.loc 2 231 13
 #NO_APP
	lw	a5,-28(s0)
 #APP
# 231 "/home/gra2p/Documents/uva_courses/rp1/src/freedom-metal/src/pmp.c" 1
	csrs pmpcfg3, a5
# 0 "" 2
	.loc 2 232 13
 #NO_APP
	j	.L54
.L61:
	.loc 2 234 5
	nop
.L54:
	.loc 2 258 12
	li	a5,0
.L59:
	.loc 2 259 1 discriminator 1
	mv	a0,a5
	lw	ra,60(sp)
	.cfi_restore 1
	lw	s0,56(sp)
	.cfi_restore 8
	.cfi_def_cfa 2, 64
	lw	s1,52(sp)
	.cfi_restore 9
	addi	sp,sp,64
	.cfi_def_cfa_offset 0
	jr	ra
	.cfi_endproc
.LFE225:
	.size	metal_pmp_set_region, .-metal_pmp_set_region
	.section	.text.metal_pmp_get_region,"ax",@progbits
	.align	1
	.globl	metal_pmp_get_region
	.type	metal_pmp_get_region, @function
metal_pmp_get_region:
.LFB226:
	.loc 2 262 76
	.cfi_startproc
	addi	sp,sp,-48
	.cfi_def_cfa_offset 48
	sw	ra,44(sp)
	sw	s0,40(sp)
	.cfi_offset 1, -4
	.cfi_offset 8, -8
	addi	s0,sp,48
	.cfi_def_cfa 8, 0
	sw	a0,-36(s0)
	sw	a1,-40(s0)
	sw	a2,-44(s0)
	sw	a3,-48(s0)
	.loc 2 263 12
	sw	zero,-24(s0)
	.loc 2 264 11
	addi	a5,s0,-24
	sw	a5,-20(s0)
	.loc 2 266 8
	lw	a5,-36(s0)
	beq	a5,zero,.L63
	.loc 2 266 14 discriminator 1
	lw	a5,-44(s0)
	beq	a5,zero,.L63
	.loc 2 266 25 discriminator 2
	lw	a5,-48(s0)
	bne	a5,zero,.L64
.L63:
	.loc 2 268 16
	li	a5,1
	j	.L90
.L64:
	.loc 2 271 18
	call	_pmp_regions
	mv	a4,a0
	.loc 2 271 8
	lw	a5,-40(s0)
	bleu	a5,a4,.L66
	.loc 2 273 16
	li	a5,2
	j	.L90
.L66:
	.loc 2 277 20
	lw	a5,-40(s0)
	srli	a5,a5,2
	.loc 2 277 5
	li	a4,3
	beq	a5,a4,.L67
	li	a4,3
	bgtu	a5,a4,.L68
	li	a4,2
	beq	a5,a4,.L69
	li	a4,2
	bgtu	a5,a4,.L68
	beq	a5,zero,.L70
	li	a4,1
	beq	a5,a4,.L71
	j	.L68
.L70:
	.loc 2 279 9
 #APP
# 279 "/home/gra2p/Documents/uva_courses/rp1/src/freedom-metal/src/pmp.c" 1
	csrr a5, pmpcfg0
# 0 "" 2
 #NO_APP
	sw	a5,-24(s0)
	.loc 2 280 9
	j	.L68
.L71:
	.loc 2 282 9
 #APP
# 282 "/home/gra2p/Documents/uva_courses/rp1/src/freedom-metal/src/pmp.c" 1
	csrr a5, pmpcfg1
# 0 "" 2
 #NO_APP
	sw	a5,-24(s0)
	.loc 2 283 9
	j	.L68
.L69:
	.loc 2 285 9
 #APP
# 285 "/home/gra2p/Documents/uva_courses/rp1/src/freedom-metal/src/pmp.c" 1
	csrr a5, pmpcfg2
# 0 "" 2
 #NO_APP
	sw	a5,-24(s0)
	.loc 2 286 9
	j	.L68
.L67:
	.loc 2 288 9
 #APP
# 288 "/home/gra2p/Documents/uva_courses/rp1/src/freedom-metal/src/pmp.c" 1
	csrr a5, pmpcfg3
# 0 "" 2
 #NO_APP
	sw	a5,-24(s0)
	.loc 2 289 9
	nop
.L68:
	.loc 2 292 30
	lw	a4,-24(s0)
	.loc 2 292 46
	lw	a5,-40(s0)
	andi	a5,a5,3
	.loc 2 292 36
	slli	a5,a5,3
	.loc 2 292 30
	srl	a5,a4,a5
	.loc 2 292 20
	andi	a5,a5,255
	.loc 2 292 12
	sw	a5,-24(s0)
	.loc 2 310 13
	lw	a5,-44(s0)
	lw	a4,-20(s0)
	lw	a4,0(a4)
	sw	a4,0(a5)
	lw	a4,-40(s0)
	li	a5,15
	bgtu	a4,a5,.L72
	lw	a5,-40(s0)
	slli	a4,a5,2
	lui	a5,%hi(.L74)
	addi	a5,a5,%lo(.L74)
	add	a5,a4,a5
	lw	a5,0(a5)
	jr	a5
	.section	.rodata.metal_pmp_get_region,"a",@progbits
	.align	2
	.align	2
.L74:
	.word	.L89
	.word	.L88
	.word	.L87
	.word	.L86
	.word	.L85
	.word	.L84
	.word	.L83
	.word	.L82
	.word	.L81
	.word	.L80
	.word	.L79
	.word	.L78
	.word	.L77
	.word	.L76
	.word	.L75
	.word	.L73
	.section	.text.metal_pmp_get_region
.L89:
	.loc 2 314 9
 #APP
# 314 "/home/gra2p/Documents/uva_courses/rp1/src/freedom-metal/src/pmp.c" 1
	csrr a4, pmpaddr0
# 0 "" 2
 #NO_APP
	lw	a5,-48(s0)
	sw	a4,0(a5)
	.loc 2 315 9
	j	.L72
.L88:
	.loc 2 317 9
 #APP
# 317 "/home/gra2p/Documents/uva_courses/rp1/src/freedom-metal/src/pmp.c" 1
	csrr a4, pmpaddr1
# 0 "" 2
 #NO_APP
	lw	a5,-48(s0)
	sw	a4,0(a5)
	.loc 2 318 9
	j	.L72
.L87:
	.loc 2 320 9
 #APP
# 320 "/home/gra2p/Documents/uva_courses/rp1/src/freedom-metal/src/pmp.c" 1
	csrr a4, pmpaddr2
# 0 "" 2
 #NO_APP
	lw	a5,-48(s0)
	sw	a4,0(a5)
	.loc 2 321 9
	j	.L72
.L86:
	.loc 2 323 9
 #APP
# 323 "/home/gra2p/Documents/uva_courses/rp1/src/freedom-metal/src/pmp.c" 1
	csrr a4, pmpaddr3
# 0 "" 2
 #NO_APP
	lw	a5,-48(s0)
	sw	a4,0(a5)
	.loc 2 324 9
	j	.L72
.L85:
	.loc 2 326 9
 #APP
# 326 "/home/gra2p/Documents/uva_courses/rp1/src/freedom-metal/src/pmp.c" 1
	csrr a4, pmpaddr4
# 0 "" 2
 #NO_APP
	lw	a5,-48(s0)
	sw	a4,0(a5)
	.loc 2 327 9
	j	.L72
.L84:
	.loc 2 329 9
 #APP
# 329 "/home/gra2p/Documents/uva_courses/rp1/src/freedom-metal/src/pmp.c" 1
	csrr a4, pmpaddr5
# 0 "" 2
 #NO_APP
	lw	a5,-48(s0)
	sw	a4,0(a5)
	.loc 2 330 9
	j	.L72
.L83:
	.loc 2 332 9
 #APP
# 332 "/home/gra2p/Documents/uva_courses/rp1/src/freedom-metal/src/pmp.c" 1
	csrr a4, pmpaddr6
# 0 "" 2
 #NO_APP
	lw	a5,-48(s0)
	sw	a4,0(a5)
	.loc 2 333 9
	j	.L72
.L82:
	.loc 2 335 9
 #APP
# 335 "/home/gra2p/Documents/uva_courses/rp1/src/freedom-metal/src/pmp.c" 1
	csrr a4, pmpaddr7
# 0 "" 2
 #NO_APP
	lw	a5,-48(s0)
	sw	a4,0(a5)
	.loc 2 336 9
	j	.L72
.L81:
	.loc 2 338 9
 #APP
# 338 "/home/gra2p/Documents/uva_courses/rp1/src/freedom-metal/src/pmp.c" 1
	csrr a4, pmpaddr8
# 0 "" 2
 #NO_APP
	lw	a5,-48(s0)
	sw	a4,0(a5)
	.loc 2 339 9
	j	.L72
.L80:
	.loc 2 341 9
 #APP
# 341 "/home/gra2p/Documents/uva_courses/rp1/src/freedom-metal/src/pmp.c" 1
	csrr a4, pmpaddr9
# 0 "" 2
 #NO_APP
	lw	a5,-48(s0)
	sw	a4,0(a5)
	.loc 2 342 9
	j	.L72
.L79:
	.loc 2 344 9
 #APP
# 344 "/home/gra2p/Documents/uva_courses/rp1/src/freedom-metal/src/pmp.c" 1
	csrr a4, pmpaddr10
# 0 "" 2
 #NO_APP
	lw	a5,-48(s0)
	sw	a4,0(a5)
	.loc 2 345 9
	j	.L72
.L78:
	.loc 2 347 9
 #APP
# 347 "/home/gra2p/Documents/uva_courses/rp1/src/freedom-metal/src/pmp.c" 1
	csrr a4, pmpaddr11
# 0 "" 2
 #NO_APP
	lw	a5,-48(s0)
	sw	a4,0(a5)
	.loc 2 348 9
	j	.L72
.L77:
	.loc 2 350 9
 #APP
# 350 "/home/gra2p/Documents/uva_courses/rp1/src/freedom-metal/src/pmp.c" 1
	csrr a4, pmpaddr12
# 0 "" 2
 #NO_APP
	lw	a5,-48(s0)
	sw	a4,0(a5)
	.loc 2 351 9
	j	.L72
.L76:
	.loc 2 353 9
 #APP
# 353 "/home/gra2p/Documents/uva_courses/rp1/src/freedom-metal/src/pmp.c" 1
	csrr a4, pmpaddr13
# 0 "" 2
 #NO_APP
	lw	a5,-48(s0)
	sw	a4,0(a5)
	.loc 2 354 9
	j	.L72
.L75:
	.loc 2 356 9
 #APP
# 356 "/home/gra2p/Documents/uva_courses/rp1/src/freedom-metal/src/pmp.c" 1
	csrr a4, pmpaddr14
# 0 "" 2
 #NO_APP
	lw	a5,-48(s0)
	sw	a4,0(a5)
	.loc 2 357 9
	j	.L72
.L73:
	.loc 2 359 9
 #APP
# 359 "/home/gra2p/Documents/uva_courses/rp1/src/freedom-metal/src/pmp.c" 1
	csrr a4, pmpaddr15
# 0 "" 2
 #NO_APP
	lw	a5,-48(s0)
	sw	a4,0(a5)
	.loc 2 360 9
	nop
.L72:
	.loc 2 363 12
	li	a5,0
.L90:
	.loc 2 364 1 discriminator 1
	mv	a0,a5
	lw	ra,44(sp)
	.cfi_restore 1
	lw	s0,40(sp)
	.cfi_restore 8
	.cfi_def_cfa 2, 48
	addi	sp,sp,48
	.cfi_def_cfa_offset 0
	jr	ra
	.cfi_endproc
.LFE226:
	.size	metal_pmp_get_region, .-metal_pmp_get_region
	.section	.text.metal_pmp_lock,"ax",@progbits
	.align	1
	.globl	metal_pmp_lock
	.type	metal_pmp_lock, @function
metal_pmp_lock:
.LFB227:
	.loc 2 366 64
	.cfi_startproc
	addi	sp,sp,-48
	.cfi_def_cfa_offset 48
	sw	ra,44(sp)
	sw	s0,40(sp)
	.cfi_offset 1, -4
	.cfi_offset 8, -8
	addi	s0,sp,48
	.cfi_def_cfa 8, 0
	sw	a0,-36(s0)
	sw	a1,-40(s0)
	.loc 2 369 9
	sw	zero,-20(s0)
	.loc 2 371 10
	addi	a4,s0,-28
	addi	a5,s0,-24
	mv	a3,a4
	mv	a2,a5
	lw	a1,-40(s0)
	lw	a0,-36(s0)
	call	metal_pmp_get_region
	sw	a0,-20(s0)
	.loc 2 372 8
	lw	a5,-20(s0)
	beq	a5,zero,.L92
	.loc 2 373 16
	lw	a5,-20(s0)
	j	.L95
.L92:
	.loc 2 376 18
	lbu	a5,-24(s0)
	andi	a5,a5,-128
	andi	a5,a5,0xff
	.loc 2 376 8
	beq	a5,zero,.L94
	.loc 2 377 16
	li	a5,0
	j	.L95
.L94:
	.loc 2 380 14
	lbu	a5,-24(s0)
	ori	a5,a5,-128
	sb	a5,-24(s0)
	.loc 2 382 10
	lw	a5,-28(s0)
	mv	a3,a5
	lw	a2,-24(s0)
	lw	a1,-40(s0)
	lw	a0,-36(s0)
	call	metal_pmp_set_region
	sw	a0,-20(s0)
	.loc 2 384 12
	lw	a5,-20(s0)
.L95:
	.loc 2 385 1 discriminator 1
	mv	a0,a5
	lw	ra,44(sp)
	.cfi_restore 1
	lw	s0,40(sp)
	.cfi_restore 8
	.cfi_def_cfa 2, 48
	addi	sp,sp,48
	.cfi_def_cfa_offset 0
	jr	ra
	.cfi_endproc
.LFE227:
	.size	metal_pmp_lock, .-metal_pmp_lock
	.section	.text.metal_pmp_set_address,"ax",@progbits
	.align	1
	.globl	metal_pmp_set_address
	.type	metal_pmp_set_address, @function
metal_pmp_set_address:
.LFB228:
	.loc 2 388 43
	.cfi_startproc
	addi	sp,sp,-48
	.cfi_def_cfa_offset 48
	sw	ra,44(sp)
	sw	s0,40(sp)
	.cfi_offset 1, -4
	.cfi_offset 8, -8
	addi	s0,sp,48
	.cfi_def_cfa 8, 0
	sw	a0,-36(s0)
	sw	a1,-40(s0)
	sw	a2,-44(s0)
	.loc 2 391 9
	sw	zero,-20(s0)
	.loc 2 393 10
	addi	a4,s0,-28
	addi	a5,s0,-24
	mv	a3,a4
	mv	a2,a5
	lw	a1,-40(s0)
	lw	a0,-36(s0)
	call	metal_pmp_get_region
	sw	a0,-20(s0)
	.loc 2 394 8
	lw	a5,-20(s0)
	beq	a5,zero,.L97
	.loc 2 395 16
	lw	a5,-20(s0)
	j	.L99
.L97:
	.loc 2 398 10
	lw	a3,-44(s0)
	lw	a2,-24(s0)
	lw	a1,-40(s0)
	lw	a0,-36(s0)
	call	metal_pmp_set_region
	sw	a0,-20(s0)
	.loc 2 400 12
	lw	a5,-20(s0)
.L99:
	.loc 2 401 1 discriminator 1
	mv	a0,a5
	lw	ra,44(sp)
	.cfi_restore 1
	lw	s0,40(sp)
	.cfi_restore 8
	.cfi_def_cfa 2, 48
	addi	sp,sp,48
	.cfi_def_cfa_offset 0
	jr	ra
	.cfi_endproc
.LFE228:
	.size	metal_pmp_set_address, .-metal_pmp_set_address
	.section	.text.metal_pmp_get_address,"ax",@progbits
	.align	1
	.globl	metal_pmp_get_address
	.type	metal_pmp_get_address, @function
metal_pmp_get_address:
.LFB229:
	.loc 2 403 74
	.cfi_startproc
	addi	sp,sp,-48
	.cfi_def_cfa_offset 48
	sw	ra,44(sp)
	sw	s0,40(sp)
	.cfi_offset 1, -4
	.cfi_offset 8, -8
	addi	s0,sp,48
	.cfi_def_cfa 8, 0
	sw	a0,-36(s0)
	sw	a1,-40(s0)
	.loc 2 405 12
	sw	zero,-24(s0)
	.loc 2 407 5
	addi	a4,s0,-24
	addi	a5,s0,-20
	mv	a3,a4
	mv	a2,a5
	lw	a1,-40(s0)
	lw	a0,-36(s0)
	call	metal_pmp_get_region
	.loc 2 409 12
	lw	a5,-24(s0)
	.loc 2 410 1
	mv	a0,a5
	lw	ra,44(sp)
	.cfi_restore 1
	lw	s0,40(sp)
	.cfi_restore 8
	.cfi_def_cfa 2, 48
	addi	sp,sp,48
	.cfi_def_cfa_offset 0
	jr	ra
	.cfi_endproc
.LFE229:
	.size	metal_pmp_get_address, .-metal_pmp_get_address
	.section	.text.metal_pmp_set_address_mode,"ax",@progbits
	.align	1
	.globl	metal_pmp_set_address_mode
	.type	metal_pmp_set_address_mode, @function
metal_pmp_set_address_mode:
.LFB230:
	.loc 2 413 66
	.cfi_startproc
	addi	sp,sp,-48
	.cfi_def_cfa_offset 48
	sw	ra,44(sp)
	sw	s0,40(sp)
	.cfi_offset 1, -4
	.cfi_offset 8, -8
	addi	s0,sp,48
	.cfi_def_cfa 8, 0
	sw	a0,-36(s0)
	sw	a1,-40(s0)
	sw	a2,-44(s0)
	.loc 2 416 9
	sw	zero,-20(s0)
	.loc 2 418 10
	addi	a4,s0,-28
	addi	a5,s0,-24
	mv	a3,a4
	mv	a2,a5
	lw	a1,-40(s0)
	lw	a0,-36(s0)
	call	metal_pmp_get_region
	sw	a0,-20(s0)
	.loc 2 419 8
	lw	a5,-20(s0)
	beq	a5,zero,.L103
	.loc 2 420 16
	lw	a5,-20(s0)
	j	.L105
.L103:
	.loc 2 423 14
	lw	a5,-44(s0)
	andi	a5,a5,3
	andi	a5,a5,0xff
	andi	a5,a5,3
	slli	a3,a5,3
	lbu	a5,-24(s0)
	andi	a5,a5,-25
	mv	a4,a5
	mv	a5,a3
	or	a5,a4,a5
	sb	a5,-24(s0)
	.loc 2 425 10
	lw	a5,-28(s0)
	mv	a3,a5
	lw	a2,-24(s0)
	lw	a1,-40(s0)
	lw	a0,-36(s0)
	call	metal_pmp_set_region
	sw	a0,-20(s0)
	.loc 2 427 12
	lw	a5,-20(s0)
.L105:
	.loc 2 428 1 discriminator 1
	mv	a0,a5
	lw	ra,44(sp)
	.cfi_restore 1
	lw	s0,40(sp)
	.cfi_restore 8
	.cfi_def_cfa 2, 48
	addi	sp,sp,48
	.cfi_def_cfa_offset 0
	jr	ra
	.cfi_endproc
.LFE230:
	.size	metal_pmp_set_address_mode, .-metal_pmp_set_address_mode
	.section	.text.metal_pmp_get_address_mode,"ax",@progbits
	.align	1
	.globl	metal_pmp_get_address_mode
	.type	metal_pmp_get_address_mode, @function
metal_pmp_get_address_mode:
.LFB231:
	.loc 2 431 77
	.cfi_startproc
	addi	sp,sp,-48
	.cfi_def_cfa_offset 48
	sw	ra,44(sp)
	sw	s0,40(sp)
	.cfi_offset 1, -4
	.cfi_offset 8, -8
	addi	s0,sp,48
	.cfi_def_cfa 8, 0
	sw	a0,-36(s0)
	sw	a1,-40(s0)
	.loc 2 433 12
	sw	zero,-24(s0)
	.loc 2 435 5
	addi	a4,s0,-24
	addi	a5,s0,-20
	mv	a3,a4
	mv	a2,a5
	lw	a1,-40(s0)
	lw	a0,-36(s0)
	call	metal_pmp_get_region
	.loc 2 437 18
	lw	a5,-20(s0)
	srli	a5,a5,3
	andi	a5,a5,3
	andi	a5,a5,0xff
	.loc 2 438 1
	mv	a0,a5
	lw	ra,44(sp)
	.cfi_restore 1
	lw	s0,40(sp)
	.cfi_restore 8
	.cfi_def_cfa 2, 48
	addi	sp,sp,48
	.cfi_def_cfa_offset 0
	jr	ra
	.cfi_endproc
.LFE231:
	.size	metal_pmp_get_address_mode, .-metal_pmp_get_address_mode
	.section	.text.metal_pmp_set_executable,"ax",@progbits
	.align	1
	.globl	metal_pmp_set_executable
	.type	metal_pmp_set_executable, @function
metal_pmp_set_executable:
.LFB232:
	.loc 2 441 37
	.cfi_startproc
	addi	sp,sp,-48
	.cfi_def_cfa_offset 48
	sw	ra,44(sp)
	sw	s0,40(sp)
	.cfi_offset 1, -4
	.cfi_offset 8, -8
	addi	s0,sp,48
	.cfi_def_cfa 8, 0
	sw	a0,-36(s0)
	sw	a1,-40(s0)
	sw	a2,-44(s0)
	.loc 2 444 9
	sw	zero,-20(s0)
	.loc 2 446 10
	addi	a4,s0,-28
	addi	a5,s0,-24
	mv	a3,a4
	mv	a2,a5
	lw	a1,-40(s0)
	lw	a0,-36(s0)
	call	metal_pmp_get_region
	sw	a0,-20(s0)
	.loc 2 447 8
	lw	a5,-20(s0)
	beq	a5,zero,.L109
	.loc 2 448 16
	lw	a5,-20(s0)
	j	.L111
.L109:
	.loc 2 451 14
	lw	a5,-44(s0)
	andi	a5,a5,1
	andi	a5,a5,0xff
	andi	a5,a5,1
	slli	a3,a5,2
	lbu	a5,-24(s0)
	andi	a5,a5,-5
	mv	a4,a5
	mv	a5,a3
	or	a5,a4,a5
	sb	a5,-24(s0)
	.loc 2 453 10
	lw	a5,-28(s0)
	mv	a3,a5
	lw	a2,-24(s0)
	lw	a1,-40(s0)
	lw	a0,-36(s0)
	call	metal_pmp_set_region
	sw	a0,-20(s0)
	.loc 2 455 12
	lw	a5,-20(s0)
.L111:
	.loc 2 456 1 discriminator 1
	mv	a0,a5
	lw	ra,44(sp)
	.cfi_restore 1
	lw	s0,40(sp)
	.cfi_restore 8
	.cfi_def_cfa 2, 48
	addi	sp,sp,48
	.cfi_def_cfa_offset 0
	jr	ra
	.cfi_endproc
.LFE232:
	.size	metal_pmp_set_executable, .-metal_pmp_set_executable
	.section	.text.metal_pmp_get_executable,"ax",@progbits
	.align	1
	.globl	metal_pmp_get_executable
	.type	metal_pmp_get_executable, @function
metal_pmp_get_executable:
.LFB233:
	.loc 2 458 74
	.cfi_startproc
	addi	sp,sp,-48
	.cfi_def_cfa_offset 48
	sw	ra,44(sp)
	sw	s0,40(sp)
	.cfi_offset 1, -4
	.cfi_offset 8, -8
	addi	s0,sp,48
	.cfi_def_cfa 8, 0
	sw	a0,-36(s0)
	sw	a1,-40(s0)
	.loc 2 460 12
	sw	zero,-24(s0)
	.loc 2 462 5
	addi	a4,s0,-24
	addi	a5,s0,-20
	mv	a3,a4
	mv	a2,a5
	lw	a1,-40(s0)
	lw	a0,-36(s0)
	call	metal_pmp_get_region
	.loc 2 464 18
	lw	a5,-20(s0)
	srli	a5,a5,2
	andi	a5,a5,1
	andi	a5,a5,0xff
	.loc 2 465 1
	mv	a0,a5
	lw	ra,44(sp)
	.cfi_restore 1
	lw	s0,40(sp)
	.cfi_restore 8
	.cfi_def_cfa 2, 48
	addi	sp,sp,48
	.cfi_def_cfa_offset 0
	jr	ra
	.cfi_endproc
.LFE233:
	.size	metal_pmp_get_executable, .-metal_pmp_get_executable
	.section	.text.metal_pmp_set_writeable,"ax",@progbits
	.align	1
	.globl	metal_pmp_set_writeable
	.type	metal_pmp_set_writeable, @function
metal_pmp_set_writeable:
.LFB234:
	.loc 2 467 80
	.cfi_startproc
	addi	sp,sp,-48
	.cfi_def_cfa_offset 48
	sw	ra,44(sp)
	sw	s0,40(sp)
	.cfi_offset 1, -4
	.cfi_offset 8, -8
	addi	s0,sp,48
	.cfi_def_cfa 8, 0
	sw	a0,-36(s0)
	sw	a1,-40(s0)
	sw	a2,-44(s0)
	.loc 2 470 9
	sw	zero,-20(s0)
	.loc 2 472 10
	addi	a4,s0,-28
	addi	a5,s0,-24
	mv	a3,a4
	mv	a2,a5
	lw	a1,-40(s0)
	lw	a0,-36(s0)
	call	metal_pmp_get_region
	sw	a0,-20(s0)
	.loc 2 473 8
	lw	a5,-20(s0)
	beq	a5,zero,.L115
	.loc 2 474 16
	lw	a5,-20(s0)
	j	.L117
.L115:
	.loc 2 477 14
	lw	a5,-44(s0)
	andi	a5,a5,1
	andi	a5,a5,0xff
	andi	a5,a5,1
	slli	a3,a5,1
	lbu	a5,-24(s0)
	andi	a5,a5,-3
	mv	a4,a5
	mv	a5,a3
	or	a5,a4,a5
	sb	a5,-24(s0)
	.loc 2 479 10
	lw	a5,-28(s0)
	mv	a3,a5
	lw	a2,-24(s0)
	lw	a1,-40(s0)
	lw	a0,-36(s0)
	call	metal_pmp_set_region
	sw	a0,-20(s0)
	.loc 2 481 12
	lw	a5,-20(s0)
.L117:
	.loc 2 482 1 discriminator 1
	mv	a0,a5
	lw	ra,44(sp)
	.cfi_restore 1
	lw	s0,40(sp)
	.cfi_restore 8
	.cfi_def_cfa 2, 48
	addi	sp,sp,48
	.cfi_def_cfa_offset 0
	jr	ra
	.cfi_endproc
.LFE234:
	.size	metal_pmp_set_writeable, .-metal_pmp_set_writeable
	.section	.text.metal_pmp_get_writeable,"ax",@progbits
	.align	1
	.globl	metal_pmp_get_writeable
	.type	metal_pmp_get_writeable, @function
metal_pmp_get_writeable:
.LFB235:
	.loc 2 484 73
	.cfi_startproc
	addi	sp,sp,-48
	.cfi_def_cfa_offset 48
	sw	ra,44(sp)
	sw	s0,40(sp)
	.cfi_offset 1, -4
	.cfi_offset 8, -8
	addi	s0,sp,48
	.cfi_def_cfa 8, 0
	sw	a0,-36(s0)
	sw	a1,-40(s0)
	.loc 2 486 12
	sw	zero,-24(s0)
	.loc 2 488 5
	addi	a4,s0,-24
	addi	a5,s0,-20
	mv	a3,a4
	mv	a2,a5
	lw	a1,-40(s0)
	lw	a0,-36(s0)
	call	metal_pmp_get_region
	.loc 2 490 18
	lw	a5,-20(s0)
	srli	a5,a5,1
	andi	a5,a5,1
	andi	a5,a5,0xff
	.loc 2 491 1
	mv	a0,a5
	lw	ra,44(sp)
	.cfi_restore 1
	lw	s0,40(sp)
	.cfi_restore 8
	.cfi_def_cfa 2, 48
	addi	sp,sp,48
	.cfi_def_cfa_offset 0
	jr	ra
	.cfi_endproc
.LFE235:
	.size	metal_pmp_get_writeable, .-metal_pmp_get_writeable
	.section	.text.metal_pmp_set_readable,"ax",@progbits
	.align	1
	.globl	metal_pmp_set_readable
	.type	metal_pmp_set_readable, @function
metal_pmp_set_readable:
.LFB236:
	.loc 2 493 79
	.cfi_startproc
	addi	sp,sp,-48
	.cfi_def_cfa_offset 48
	sw	ra,44(sp)
	sw	s0,40(sp)
	.cfi_offset 1, -4
	.cfi_offset 8, -8
	addi	s0,sp,48
	.cfi_def_cfa 8, 0
	sw	a0,-36(s0)
	sw	a1,-40(s0)
	sw	a2,-44(s0)
	.loc 2 496 9
	sw	zero,-20(s0)
	.loc 2 498 10
	addi	a4,s0,-28
	addi	a5,s0,-24
	mv	a3,a4
	mv	a2,a5
	lw	a1,-40(s0)
	lw	a0,-36(s0)
	call	metal_pmp_get_region
	sw	a0,-20(s0)
	.loc 2 499 8
	lw	a5,-20(s0)
	beq	a5,zero,.L121
	.loc 2 500 16
	lw	a5,-20(s0)
	j	.L123
.L121:
	.loc 2 503 14
	lw	a5,-44(s0)
	andi	a5,a5,1
	andi	a5,a5,0xff
	andi	a3,a5,1
	lbu	a5,-24(s0)
	andi	a5,a5,-2
	mv	a4,a5
	mv	a5,a3
	or	a5,a4,a5
	sb	a5,-24(s0)
	.loc 2 505 10
	lw	a5,-28(s0)
	mv	a3,a5
	lw	a2,-24(s0)
	lw	a1,-40(s0)
	lw	a0,-36(s0)
	call	metal_pmp_set_region
	sw	a0,-20(s0)
	.loc 2 507 12
	lw	a5,-20(s0)
.L123:
	.loc 2 508 1 discriminator 1
	mv	a0,a5
	lw	ra,44(sp)
	.cfi_restore 1
	lw	s0,40(sp)
	.cfi_restore 8
	.cfi_def_cfa 2, 48
	addi	sp,sp,48
	.cfi_def_cfa_offset 0
	jr	ra
	.cfi_endproc
.LFE236:
	.size	metal_pmp_set_readable, .-metal_pmp_set_readable
	.section	.text.metal_pmp_get_readable,"ax",@progbits
	.align	1
	.globl	metal_pmp_get_readable
	.type	metal_pmp_get_readable, @function
metal_pmp_get_readable:
.LFB237:
	.loc 2 510 72
	.cfi_startproc
	addi	sp,sp,-48
	.cfi_def_cfa_offset 48
	sw	ra,44(sp)
	sw	s0,40(sp)
	.cfi_offset 1, -4
	.cfi_offset 8, -8
	addi	s0,sp,48
	.cfi_def_cfa 8, 0
	sw	a0,-36(s0)
	sw	a1,-40(s0)
	.loc 2 512 12
	sw	zero,-24(s0)
	.loc 2 514 5
	addi	a4,s0,-24
	addi	a5,s0,-20
	mv	a3,a4
	mv	a2,a5
	lw	a1,-40(s0)
	lw	a0,-36(s0)
	call	metal_pmp_get_region
	.loc 2 516 18
	lw	a5,-20(s0)
	andi	a5,a5,1
	andi	a5,a5,0xff
	.loc 2 517 1
	mv	a0,a5
	lw	ra,44(sp)
	.cfi_restore 1
	lw	s0,40(sp)
	.cfi_restore 8
	.cfi_def_cfa 2, 48
	addi	sp,sp,48
	.cfi_def_cfa_offset 0
	jr	ra
	.cfi_endproc
.LFE237:
	.size	metal_pmp_get_readable, .-metal_pmp_get_readable
	.text
.Letext0:
	.file 3 "/home/gra2p/Documents/uva_courses/rp1/tools/riscv64-unknown-elf-toolchain-10.2.0-2020.12.8-x86_64-linux-ubuntu14/lib/gcc/riscv64-unknown-elf/10.2.0/include/stddef.h"
	.file 4 "/home/gra2p/Documents/uva_courses/rp1/src/freedom-metal/metal/interrupt.h"
	.file 5 "/home/gra2p/Documents/uva_courses/rp1/tools/riscv64-unknown-elf-toolchain-10.2.0-2020.12.8-x86_64-linux-ubuntu14/riscv64-unknown-elf/include/machine/_default_types.h"
	.file 6 "/home/gra2p/Documents/uva_courses/rp1/tools/riscv64-unknown-elf-toolchain-10.2.0-2020.12.8-x86_64-linux-ubuntu14/riscv64-unknown-elf/include/sys/_stdint.h"
	.file 7 "/home/gra2p/Documents/uva_courses/rp1/src/freedom-metal/metal/cpu.h"
	.file 8 "/home/gra2p/Documents/uva_courses/rp1/src/freedom-metal/metal/clock.h"
	.file 9 "/home/gra2p/Documents/uva_courses/rp1/src/freedom-metal/metal/memory.h"
	.file 10 "/home/gra2p/Documents/uva_courses/rp1/src/freedom-metal/metal/drivers/riscv_cpu.h"
	.file 11 "/home/gra2p/Documents/uva_courses/rp1/src/freedom-metal/metal/pmp.h"
	.file 12 "/home/gra2p/Documents/uva_courses/rp1/src/freedom-metal/metal/gpio.h"
	.file 13 "/home/gra2p/Documents/uva_courses/rp1/src/freedom-metal/metal/drivers/sifive_gpio0.h"
	.file 14 "/home/gra2p/Documents/uva_courses/rp1/src/freedom-metal/metal/led.h"
	.file 15 "/home/gra2p/Documents/uva_courses/rp1/src/freedom-metal/metal/drivers/sifive_gpio-leds.h"
	.file 16 "/home/gra2p/Documents/uva_courses/rp1/src/freedom-metal/metal/i2c.h"
	.file 17 "/home/gra2p/Documents/uva_courses/rp1/src/freedom-metal/metal/drivers/sifive_i2c0.h"
	.file 18 "/home/gra2p/Documents/uva_courses/rp1/src/freedom-metal/metal/pwm.h"
	.file 19 "/home/gra2p/Documents/uva_courses/rp1/src/freedom-metal/metal/drivers/sifive_pwm0.h"
	.file 20 "/home/gra2p/Documents/uva_courses/rp1/src/freedom-metal/metal/rtc.h"
	.file 21 "/home/gra2p/Documents/uva_courses/rp1/src/freedom-metal/metal/drivers/sifive_rtc0.h"
	.file 22 "/home/gra2p/Documents/uva_courses/rp1/src/freedom-metal/metal/spi.h"
	.file 23 "/home/gra2p/Documents/uva_courses/rp1/src/freedom-metal/metal/drivers/sifive_spi0.h"
	.file 24 "/home/gra2p/Documents/uva_courses/rp1/src/freedom-metal/metal/uart.h"
	.file 25 "/home/gra2p/Documents/uva_courses/rp1/src/freedom-metal/metal/drivers/sifive_uart0.h"
	.file 26 "/home/gra2p/Documents/uva_courses/rp1/src/freedom-metal/metal/watchdog.h"
	.file 27 "/home/gra2p/Documents/uva_courses/rp1/src/freedom-metal/metal/drivers/sifive_wdog0.h"