	.file	"privilege.c"
	.option nopic
	.attribute arch, "rv32i2p0_m2p0_a2p0_c2p0"
	.attribute unaligned_access, 0
	.attribute stack_align, 16
	.text
.Ltext0:
	.cfi_sections	.debug_frame
	.section	.text.metal_privilege_drop_to_mode,"ax",@progbits
	.align	1
	.globl	metal_privilege_drop_to_mode
	.type	metal_privilege_drop_to_mode, @function
metal_privilege_drop_to_mode:
.LFB0:
	.file 1 "/home/gra2p/Documents/uva_courses/rp1/src/freedom-metal/src/privilege.c"
	.loc 1 20 78
	.cfi_startproc
	addi	sp,sp,-48
	.cfi_def_cfa_offset 48
	sw	s0,44(sp)
	sw	s1,40(sp)
	.cfi_offset 8, -4
	.cfi_offset 9, -8
	addi	s0,sp,48
	.cfi_def_cfa 8, 0
	sw	a0,-36(s0)
	mv	s1,a1
	sw	a2,-40(s0)
	.loc 1 22 5
 #APP
# 22 "/home/gra2p/Documents/uva_courses/rp1/src/freedom-metal/src/privilege.c" 1
	csrr a5, mstatus
# 0 "" 2
 #NO_APP
	sw	a5,-20(s0)
	.loc 1 25 17
	lw	a5,-20(s0)
	andi	a5,a5,8
	.loc 1 25 8
	beq	a5,zero,.L2
	.loc 1 26 17
	lw	a5,-20(s0)
	ori	a5,a5,128
	sw	a5,-20(s0)
	j	.L3
.L2:
	.loc 1 28 17
	lw	a5,-20(s0)
	andi	a5,a5,-129
	sw	a5,-20(s0)
.L3:
	.loc 1 30 17
	lw	a5,-20(s0)
	andi	a5,a5,2
	.loc 1 30 8
	beq	a5,zero,.L4
	.loc 1 31 17
	lw	a5,-20(s0)
	ori	a5,a5,32
	sw	a5,-20(s0)
	j	.L5
.L4:
	.loc 1 33 17
	lw	a5,-20(s0)
	andi	a5,a5,-33
	sw	a5,-20(s0)
.L5:
	.loc 1 35 17
	lw	a5,-20(s0)
	andi	a5,a5,1
	.loc 1 35 8
	beq	a5,zero,.L6
	.loc 1 36 17
	lw	a5,-20(s0)
	ori	a5,a5,16
	sw	a5,-20(s0)
	j	.L7
.L6:
	.loc 1 38 17
	lw	a5,-20(s0)
	andi	a5,a5,-17
	sw	a5,-20(s0)
.L7:
	.loc 1 42 13
	lw	a4,-20(s0)
	li	a5,-8192
	addi	a5,a5,2047
	and	a5,a4,a5
	sw	a5,-20(s0)
	.loc 1 43 22
	lw	a5,-36(s0)
	slli	a5,a5,11
	.loc 1 43 13
	lw	a4,-20(s0)
	or	a5,a4,a5
	sw	a5,-20(s0)
	.loc 1 45 5
	lw	a5,-20(s0)
 #APP
# 45 "/home/gra2p/Documents/uva_courses/rp1/src/freedom-metal/src/privilege.c" 1
	csrw mstatus, a5
# 0 "" 2
	.loc 1 48 5
 #NO_APP
	lw	a5,-40(s0)
 #APP
# 48 "/home/gra2p/Documents/uva_courses/rp1/src/freedom-metal/src/privilege.c" 1
	csrw mepc, a5
# 0 "" 2
	.loc 1 51 47
 #NO_APP
	lw	a5,0(s1)
	.loc 1 51 5
 #APP
# 51 "/home/gra2p/Documents/uva_courses/rp1/src/freedom-metal/src/privilege.c" 1
	mv ra, a5
# 0 "" 2
	.loc 1 52 47
 #NO_APP
	lw	a5,4(s1)
	.loc 1 52 5
 #APP
# 52 "/home/gra2p/Documents/uva_courses/rp1/src/freedom-metal/src/privilege.c" 1
	mv sp, a5
# 0 "" 2
	.loc 1 54 5
# 54 "/home/gra2p/Documents/uva_courses/rp1/src/freedom-metal/src/privilege.c" 1
	mret
# 0 "" 2
	.loc 1 55 1
 #NO_APP
	nop
	lw	s0,44(sp)
	.cfi_restore 8
	.cfi_def_cfa 2, 48
	lw	s1,40(sp)
	.cfi_restore 9
	addi	sp,sp,48
	.cfi_def_cfa_offset 0
	jr	ra
	.cfi_endproc
.LFE0:
	.size	metal_privilege_drop_to_mode, .-metal_privilege_drop_to_mode
	.text
.Letext0:
	.file 2 "/home/gra2p/Documents/uva_courses/rp1/tools/riscv64-unknown-elf-toolchain-10.2.0-2020.12.8-x86_64-linux-ubuntu14/riscv64-unknown-elf/include/machine/_default_types.h"
	.file 3 "/home/gra2p/Documents/uva_courses/rp1/tools/riscv64-unknown-elf-toolchain-10.2.0-2020.12.8-x86_64-linux-ubuntu14/riscv64-unknown-elf/include/sys/_stdint.h"
	.file 4 "/home/gra2p/Documents/uva_courses/rp1/src/freedom-metal/metal/privilege.h"