	.file	"riscv_clint0.c"
	.option nopic
	.attribute arch, "rv32i2p0_m2p0_a2p0_c2p0"
	.attribute unaligned_access, 0
	.attribute stack_align, 16
	.text
.Ltext0:
	.cfi_sections	.debug_frame
	.section	.text.__metal_driver_sifive_clint0_control_base,"ax",@progbits
	.align	1
	.type	__metal_driver_sifive_clint0_control_base, @function
__metal_driver_sifive_clint0_control_base:
.LFB128:
	.file 1 "./metal/machine.h"
	.loc 1 233 1
	.cfi_startproc
	addi	sp,sp,-32
	.cfi_def_cfa_offset 32
	sw	s0,28(sp)
	.cfi_offset 8, -4
	addi	s0,sp,32
	.cfi_def_cfa 8, 0
	sw	a0,-20(s0)
	.loc 1 234 6
	lw	a4,-20(s0)
	.loc 1 234 31
	lui	a5,%hi(__metal_dt_clint_2000000)
	addi	a5,a5,%lo(__metal_dt_clint_2000000)
	.loc 1 234 5
	bne	a4,a5,.L2
	.loc 1 235 10
	li	a5,33554432
	j	.L3
.L2:
	.loc 1 238 10
	li	a5,0
.L3:
	.loc 1 240 1
	mv	a0,a5
	lw	s0,28(sp)
	.cfi_restore 8
	.cfi_def_cfa 2, 32
	addi	sp,sp,32
	.cfi_def_cfa_offset 0
	jr	ra
	.cfi_endproc
.LFE128:
	.size	__metal_driver_sifive_clint0_control_base, .-__metal_driver_sifive_clint0_control_base
	.section	.text.__metal_driver_sifive_clint0_num_interrupts,"ax",@progbits
	.align	1
	.type	__metal_driver_sifive_clint0_num_interrupts, @function
__metal_driver_sifive_clint0_num_interrupts:
.LFB130:
	.loc 1 253 1
	.cfi_startproc
	addi	sp,sp,-32
	.cfi_def_cfa_offset 32
	sw	s0,28(sp)
	.cfi_offset 8, -4
	addi	s0,sp,32
	.cfi_def_cfa 8, 0
	sw	a0,-20(s0)
	.loc 1 254 6
	lw	a4,-20(s0)
	.loc 1 254 31
	lui	a5,%hi(__metal_dt_clint_2000000)
	addi	a5,a5,%lo(__metal_dt_clint_2000000)
	.loc 1 254 5
	bne	a4,a5,.L5
	.loc 1 255 10
	li	a5,2
	j	.L6
.L5:
	.loc 1 258 10
	li	a5,0
.L6:
	.loc 1 260 1
	mv	a0,a5
	lw	s0,28(sp)
	.cfi_restore 8
	.cfi_def_cfa 2, 32
	addi	sp,sp,32
	.cfi_def_cfa_offset 0
	jr	ra
	.cfi_endproc
.LFE130:
	.size	__metal_driver_sifive_clint0_num_interrupts, .-__metal_driver_sifive_clint0_num_interrupts
	.section	.text.__metal_driver_sifive_clint0_interrupt_parents,"ax",@progbits
	.align	1
	.type	__metal_driver_sifive_clint0_interrupt_parents, @function
__metal_driver_sifive_clint0_interrupt_parents:
.LFB131:
	.loc 1 263 1
	.cfi_startproc
	addi	sp,sp,-32
	.cfi_def_cfa_offset 32
	sw	s0,28(sp)
	.cfi_offset 8, -4
	addi	s0,sp,32
	.cfi_def_cfa 8, 0
	sw	a0,-20(s0)
	sw	a1,-24(s0)
	.loc 1 264 5
	lw	a5,-24(s0)
	bne	a5,zero,.L8
	.loc 1 265 10
	lui	a5,%hi(__metal_dt_cpu_0_interrupt_controller)
	addi	a5,a5,%lo(__metal_dt_cpu_0_interrupt_controller)
	j	.L9
.L8:
	.loc 1 267 10
	lw	a4,-24(s0)
	li	a5,1
	bne	a4,a5,.L10
	.loc 1 268 10
	lui	a5,%hi(__metal_dt_cpu_0_interrupt_controller)
	addi	a5,a5,%lo(__metal_dt_cpu_0_interrupt_controller)
	j	.L9
.L10:
	.loc 1 271 9
	li	a5,0
.L9:
	.loc 1 273 1
	mv	a0,a5
	lw	s0,28(sp)
	.cfi_restore 8
	.cfi_def_cfa 2, 32
	addi	sp,sp,32
	.cfi_def_cfa_offset 0
	jr	ra
	.cfi_endproc
.LFE131:
	.size	__metal_driver_sifive_clint0_interrupt_parents, .-__metal_driver_sifive_clint0_interrupt_parents
	.section	.text.__metal_driver_sifive_clint0_interrupt_lines,"ax",@progbits
	.align	1
	.type	__metal_driver_sifive_clint0_interrupt_lines, @function
__metal_driver_sifive_clint0_interrupt_lines:
.LFB132:
	.loc 1 276 1
	.cfi_startproc
	addi	sp,sp,-32
	.cfi_def_cfa_offset 32
	sw	s0,28(sp)
	.cfi_offset 8, -4
	addi	s0,sp,32
	.cfi_def_cfa 8, 0
	sw	a0,-20(s0)
	sw	a1,-24(s0)
	.loc 1 277 5
	lw	a5,-24(s0)
	bne	a5,zero,.L12
	.loc 1 278 10
	li	a5,3
	j	.L13
.L12:
	.loc 1 280 10
	lw	a4,-24(s0)
	li	a5,1
	bne	a4,a5,.L14
	.loc 1 281 10
	li	a5,7
	j	.L13
.L14:
	.loc 1 284 10
	li	a5,0
.L13:
	.loc 1 286 1
	mv	a0,a5
	lw	s0,28(sp)
	.cfi_restore 8
	.cfi_def_cfa 2, 32
	addi	sp,sp,32
	.cfi_def_cfa_offset 0
	jr	ra
	.cfi_endproc
.LFE132:
	.size	__metal_driver_sifive_clint0_interrupt_lines, .-__metal_driver_sifive_clint0_interrupt_lines
	.weak	__metal_memory_table
	.section	.data.__metal_memory_table,"aw"
	.align	2
	.type	__metal_memory_table, @object
	.size	__metal_memory_table, 12
__metal_memory_table:
	.word	__metal_dt_mem_dtim_80000000
	.word	__metal_dt_mem_itim_8000000
	.word	__metal_dt_mem_spi_10014000
	.weak	__metal_cpu_table
	.section	.sdata.__metal_cpu_table,"aw"
	.align	2
	.type	__metal_cpu_table, @object
	.size	__metal_cpu_table, 4
__metal_cpu_table:
	.word	__metal_dt_cpu_0
	.weak	__metal_gpio_table
	.section	.sdata.__metal_gpio_table,"aw"
	.align	2
	.type	__metal_gpio_table, @object
	.size	__metal_gpio_table, 4
__metal_gpio_table:
	.word	__metal_dt_gpio_10012000
	.weak	__metal_button_table
	.section	.sbss.__metal_button_table,"aw",@nobits
	.align	2
	.type	__metal_button_table, @object
	.size	__metal_button_table, 4
__metal_button_table:
	.zero	4
	.weak	__metal_led_table
	.section	.data.__metal_led_table,"aw"
	.align	2
	.type	__metal_led_table, @object
	.size	__metal_led_table, 12
__metal_led_table:
	.word	__metal_dt_led_0
	.word	__metal_dt_led_1
	.word	__metal_dt_led_2
	.weak	__metal_switch_table
	.section	.sbss.__metal_switch_table,"aw",@nobits
	.align	2
	.type	__metal_switch_table, @object
	.size	__metal_switch_table, 4
__metal_switch_table:
	.zero	4
	.weak	__metal_i2c_table
	.section	.sdata.__metal_i2c_table,"aw"
	.align	2
	.type	__metal_i2c_table, @object
	.size	__metal_i2c_table, 4
__metal_i2c_table:
	.word	__metal_dt_i2c_10016000
	.weak	__metal_pwm_table
	.section	.data.__metal_pwm_table,"aw"
	.align	2
	.type	__metal_pwm_table, @object
	.size	__metal_pwm_table, 12
__metal_pwm_table:
	.word	__metal_dt_pwm_10015000
	.word	__metal_dt_pwm_10025000
	.word	__metal_dt_pwm_10035000
	.weak	__metal_rtc_table
	.section	.sdata.__metal_rtc_table,"aw"
	.align	2
	.type	__metal_rtc_table, @object
	.size	__metal_rtc_table, 4
__metal_rtc_table:
	.word	__metal_dt_rtc_10000000
	.weak	__metal_spi_table
	.section	.data.__metal_spi_table,"aw"
	.align	2
	.type	__metal_spi_table, @object
	.size	__metal_spi_table, 12
__metal_spi_table:
	.word	__metal_dt_spi_10014000
	.word	__metal_dt_spi_10024000
	.word	__metal_dt_spi_10034000
	.weak	__metal_uart_table
	.section	.sdata.__metal_uart_table,"aw"
	.align	2
	.type	__metal_uart_table, @object
	.size	__metal_uart_table, 8
__metal_uart_table:
	.word	__metal_dt_serial_10013000
	.word	__metal_dt_serial_10023000
	.weak	__metal_simuart_table
	.section	.sbss.__metal_simuart_table,"aw",@nobits
	.align	2
	.type	__metal_simuart_table, @object
	.size	__metal_simuart_table, 4
__metal_simuart_table:
	.zero	4
	.weak	__metal_wdog_table
	.section	.sdata.__metal_wdog_table,"aw"
	.align	2
	.type	__metal_wdog_table, @object
	.size	__metal_wdog_table, 4
__metal_wdog_table:
	.word	__metal_dt_aon_10000000
	.section	.text.__metal_clint0_mtime_get,"ax",@progbits
	.align	1
	.globl	__metal_clint0_mtime_get
	.type	__metal_clint0_mtime_get, @function
__metal_clint0_mtime_get:
.LFB219:
	.file 2 "/home/gra2p/Documents/uva_courses/rp1/src/freedom-metal/src/drivers/riscv_clint0.c"
	.loc 2 14 69
	.cfi_startproc
	addi	sp,sp,-80
	.cfi_def_cfa_offset 80
	sw	ra,76(sp)
	sw	s0,72(sp)
	sw	s2,68(sp)
	sw	s3,64(sp)
	sw	s4,60(sp)
	sw	s5,56(sp)
	sw	s6,52(sp)
	sw	s7,48(sp)
	sw	s8,44(sp)
	sw	s9,40(sp)
	.cfi_offset 1, -4
	.cfi_offset 8, -8
	.cfi_offset 18, -12
	.cfi_offset 19, -16
	.cfi_offset 20, -20
	.cfi_offset 21, -24
	.cfi_offset 22, -28
	.cfi_offset 23, -32
	.cfi_offset 24, -36
	.cfi_offset 25, -40
	addi	s0,sp,80
	.cfi_def_cfa 8, 0
	sw	a0,-68(s0)
	.loc 2 17 9
	lw	a5,-68(s0)
	mv	a0,a5
	call	__metal_driver_sifive_clint0_control_base
	sw	a0,-52(s0)
.L16:
	.loc 2 21 131 discriminator 1
	lw	a4,-52(s0)
	li	a5,49152
	addi	a5,a5,-4
	add	a5,a4,a5
	.loc 2 21 12 discriminator 1
	lw	a5,0(a5)
	sw	a5,-56(s0)
	.loc 2 23 117 discriminator 1
	lw	a4,-52(s0)
	li	a5,49152
	addi	a5,a5,-8
	add	a5,a4,a5
	.loc 2 23 12 discriminator 1
	lw	a5,0(a5)
	sw	a5,-60(s0)
	.loc 2 25 131 discriminator 1
	lw	a4,-52(s0)
	li	a5,49152
	addi	a5,a5,-4
	add	a5,a4,a5
	.loc 2 25 15 discriminator 1
	lw	a5,0(a5)
	.loc 2 27 57 discriminator 1
	lw	a4,-56(s0)
	bne	a4,a5,.L16
	.loc 2 29 14
	lw	a5,-56(s0)
	mv	s8,a5
	li	s9,0
	.loc 2 29 38
	slli	s3,s8,0
	li	s2,0
	.loc 2 29 45
	lw	a5,-60(s0)
	mv	s4,a5
	li	s5,0
	or	s6,s2,s4
	or	s7,s3,s5
	mv	a4,s6
	mv	a5,s7
	.loc 2 30 1
	mv	a0,a4
	mv	a1,a5
	lw	ra,76(sp)
	.cfi_restore 1
	lw	s0,72(sp)
	.cfi_restore 8
	.cfi_def_cfa 2, 80
	lw	s2,68(sp)
	.cfi_restore 18
	lw	s3,64(sp)
	.cfi_restore 19
	lw	s4,60(sp)
	.cfi_restore 20
	lw	s5,56(sp)
	.cfi_restore 21
	lw	s6,52(sp)
	.cfi_restore 22
	lw	s7,48(sp)
	.cfi_restore 23
	lw	s8,44(sp)
	.cfi_restore 24
	lw	s9,40(sp)
	.cfi_restore 25
	addi	sp,sp,80
	.cfi_def_cfa_offset 0
	jr	ra
	.cfi_endproc
.LFE219:
	.size	__metal_clint0_mtime_get, .-__metal_clint0_mtime_get
	.section	.text.__metal_driver_riscv_clint0_mtimecmp_set,"ax",@progbits
	.align	1
	.globl	__metal_driver_riscv_clint0_mtimecmp_set
	.type	__metal_driver_riscv_clint0_mtimecmp_set, @function
__metal_driver_riscv_clint0_mtimecmp_set:
.LFB220:
	.loc 2 34 71
	.cfi_startproc
	addi	sp,sp,-48
	.cfi_def_cfa_offset 48
	sw	ra,44(sp)
	sw	s0,40(sp)
	sw	s2,36(sp)
	sw	s3,32(sp)
	.cfi_offset 1, -4
	.cfi_offset 8, -8
	.cfi_offset 18, -12
	.cfi_offset 19, -16
	addi	s0,sp,48
	.cfi_def_cfa 8, 0
	sw	a0,-36(s0)
	sw	a1,-40(s0)
	sw	a2,-48(s0)
	sw	a3,-44(s0)
	.loc 2 35 41
	lw	a5,-36(s0)
	sw	a5,-20(s0)
	.loc 2 38 9
	lw	a5,-20(s0)
	mv	a0,a5
	call	__metal_driver_sifive_clint0_control_base
	sw	a0,-24(s0)
	.loc 2 45 132
	lw	a5,-40(s0)
	slli	a5,a5,3
	mv	a4,a5
	.loc 2 45 127
	lw	a5,-24(s0)
	add	a4,a4,a5
	.loc 2 45 152
	li	a5,16384
	addi	a5,a5,4
	add	a5,a4,a5
	.loc 2 45 7
	mv	a4,a5
	.loc 2 47 48
	li	a5,-1
	sw	a5,0(a4)
	.loc 2 48 128
	lw	a5,-40(s0)
	slli	a5,a5,3
	mv	a4,a5
	.loc 2 48 123
	lw	a5,-24(s0)
	add	a4,a4,a5
	.loc 2 48 138
	li	a5,16384
	add	a5,a4,a5
	.loc 2 48 7
	mv	a4,a5
	.loc 2 50 9
	lw	a5,-48(s0)
	.loc 2 49 79
	sw	a5,0(a4)
	.loc 2 53 72
	lw	a5,-44(s0)
	srli	s2,a5,0
	li	s3,0
	.loc 2 51 132
	lw	a5,-40(s0)
	slli	a5,a5,3
	mv	a4,a5
	.loc 2 51 127
	lw	a5,-24(s0)
	add	a4,a4,a5
	.loc 2 51 152
	li	a5,16384
	addi	a5,a5,4
	add	a5,a4,a5
	.loc 2 53 50
	mv	a4,s2
	.loc 2 53 48
	sw	a4,0(a5)
	.loc 2 54 12
	li	a5,0
	.loc 2 55 1
	mv	a0,a5
	lw	ra,44(sp)
	.cfi_restore 1
	lw	s0,40(sp)
	.cfi_restore 8
	.cfi_def_cfa 2, 48
	lw	s2,36(sp)
	.cfi_restore 18
	lw	s3,32(sp)
	.cfi_restore 19
	addi	sp,sp,48
	.cfi_def_cfa_offset 0
	jr	ra
	.cfi_endproc
.LFE220:
	.size	__metal_driver_riscv_clint0_mtimecmp_set, .-__metal_driver_riscv_clint0_mtimecmp_set
	.section	.text._get_cpu_intc,"ax",@progbits
	.align	1
	.type	_get_cpu_intc, @function
_get_cpu_intc:
.LFB221:
	.loc 2 57 48
	.cfi_startproc
	addi	sp,sp,-32
	.cfi_def_cfa_offset 32
	sw	ra,28(sp)
	sw	s0,24(sp)
	.cfi_offset 1, -4
	.cfi_offset 8, -8
	addi	s0,sp,32
	.cfi_def_cfa 8, 0
	.loc 2 58 9
	sw	zero,-20(s0)
	.loc 2 59 5
 #APP
# 59 "/home/gra2p/Documents/uva_courses/rp1/src/freedom-metal/src/drivers/riscv_clint0.c" 1
	csrr a5, mhartid
# 0 "" 2
 #NO_APP
	sw	a5,-20(s0)
	.loc 2 62 29
	lw	a5,-20(s0)
	mv	a0,a5
	call	metal_cpu_get
	sw	a0,-24(s0)
	.loc 2 64 12
	lw	a0,-24(s0)
	call	metal_cpu_interrupt_controller
	mv	a5,a0
	.loc 2 65 1
	mv	a0,a5
	lw	ra,28(sp)
	.cfi_restore 1
	lw	s0,24(sp)
	.cfi_restore 8
	.cfi_def_cfa 2, 32
	addi	sp,sp,32
	.cfi_def_cfa_offset 0
	jr	ra
	.cfi_endproc
.LFE221:
	.size	_get_cpu_intc, .-_get_cpu_intc
	.section	.text.__metal_driver_riscv_clint0_init,"ax",@progbits
	.align	1
	.globl	__metal_driver_riscv_clint0_init
	.type	__metal_driver_riscv_clint0_init, @function
__metal_driver_riscv_clint0_init:
.LFB222:
	.loc 2 67 75
	.cfi_startproc
	addi	sp,sp,-64
	.cfi_def_cfa_offset 64
	sw	ra,60(sp)
	sw	s0,56(sp)
	.cfi_offset 1, -4
	.cfi_offset 8, -8
	addi	s0,sp,64
	.cfi_def_cfa 8, 0
	sw	a0,-52(s0)
	.loc 2 69 9
	lw	a0,-52(s0)
	call	__metal_driver_sifive_clint0_num_interrupts
	sw	a0,-24(s0)
	.loc 2 70 41
	lw	a5,-52(s0)
	sw	a5,-28(s0)
	.loc 2 73 15
	lw	a5,-28(s0)
	lw	a5,4(a5)
	.loc 2 73 8
	bne	a5,zero,.L26
.LBB2:
	.loc 2 76 18
	sw	zero,-20(s0)
	.loc 2 76 9
	j	.L24
.L25:
.LBB3:
	.loc 2 78 17 discriminator 3
	lw	a1,-20(s0)
	lw	a0,-52(s0)
	call	__metal_driver_sifive_clint0_interrupt_parents
	sw	a0,-32(s0)
	.loc 2 80 17 discriminator 3
	lw	a1,-20(s0)
	lw	a0,-52(s0)
	call	__metal_driver_sifive_clint0_interrupt_lines
	sw	a0,-36(s0)
	.loc 2 81 17 discriminator 3
	lw	a5,-32(s0)
	lw	a5,0(a5)
	.loc 2 81 25 discriminator 3
	lw	a5,28(a5)
	.loc 2 81 13 discriminator 3
	lw	a3,-52(s0)
	li	a2,0
	lw	a1,-36(s0)
	lw	a0,-32(s0)
	jalr	a5
.LVL0:
.LBE3:
	.loc 2 76 46 discriminator 3
	lw	a5,-20(s0)
	addi	a5,a5,1
	sw	a5,-20(s0)
.L24:
	.loc 2 76 9 discriminator 1
	lw	a4,-20(s0)
	lw	a5,-24(s0)
	blt	a4,a5,.L25
.LBE2:
	.loc 2 83 26
	lw	a5,-28(s0)
	li	a4,1
	sw	a4,4(a5)
.L26:
	.loc 2 85 1
	nop
	lw	ra,60(sp)
	.cfi_restore 1
	lw	s0,56(sp)
	.cfi_restore 8
	.cfi_def_cfa 2, 64
	addi	sp,sp,64
	.cfi_def_cfa_offset 0
	jr	ra
	.cfi_endproc
.LFE222:
	.size	__metal_driver_riscv_clint0_init, .-__metal_driver_riscv_clint0_init
	.section	.text.__metal_driver_riscv_clint0_register,"ax",@progbits
	.align	1
	.globl	__metal_driver_riscv_clint0_register
	.type	__metal_driver_riscv_clint0_register, @function
__metal_driver_riscv_clint0_register:
.LFB223:
	.loc 2 89 54
	.cfi_startproc
	addi	sp,sp,-64
	.cfi_def_cfa_offset 64
	sw	ra,60(sp)
	sw	s0,56(sp)
	.cfi_offset 1, -4
	.cfi_offset 8, -8
	addi	s0,sp,64
	.cfi_def_cfa 8, 0
	sw	a0,-52(s0)
	sw	a1,-56(s0)
	sw	a2,-60(s0)
	sw	a3,-64(s0)
	.loc 2 90 9
	li	a5,-1
	sw	a5,-20(s0)
	.loc 2 91 30
	call	__metal_controller_interrupt_vector_mode
	sw	a0,-32(s0)
	.loc 2 92 29
	sw	zero,-24(s0)
	.loc 2 93 40
	call	_get_cpu_intc
	sw	a0,-36(s0)
	.loc 2 95 9
	lw	a0,-52(s0)
	call	__metal_driver_sifive_clint0_num_interrupts
	sw	a0,-40(s0)
	.loc 2 97 8
	lw	a4,-32(s0)
	li	a5,1
	beq	a4,a5,.L28
	.loc 2 97 37 discriminator 1
	lw	a5,-32(s0)
	beq	a5,zero,.L28
	.loc 2 98 16
	lw	a5,-20(s0)
	j	.L29
.L28:
.LBB4:
	.loc 2 101 14
	sw	zero,-28(s0)
	.loc 2 101 5
	j	.L30
.L33:
.LBB5:
	.loc 2 102 20
	lw	a1,-28(s0)
	lw	a0,-52(s0)
	call	__metal_driver_sifive_clint0_interrupt_lines
	sw	a0,-44(s0)
	.loc 2 103 16
	lw	a1,-28(s0)
	lw	a0,-52(s0)
	call	__metal_driver_sifive_clint0_interrupt_parents
	sw	a0,-24(s0)
	.loc 2 104 12
	lw	a4,-36(s0)
	lw	a5,-24(s0)
	bne	a4,a5,.L31
	.loc 2 104 30 discriminator 1
	lw	a4,-56(s0)
	lw	a5,-44(s0)
	beq	a4,a5,.L35
.L31:
	.loc 2 107 14 discriminator 2
	sw	zero,-24(s0)
.LBE5:
	.loc 2 101 42 discriminator 2
	lw	a5,-28(s0)
	addi	a5,a5,1
	sw	a5,-28(s0)
.L30:
	.loc 2 101 5 discriminator 1
	lw	a4,-28(s0)
	lw	a5,-40(s0)
	blt	a4,a5,.L33
	j	.L32
.L35:
.LBB6:
	.loc 2 105 13
	nop
.L32:
.LBE6:
.LBE4:
	.loc 2 111 8
	lw	a5,-24(s0)
	beq	a5,zero,.L34
	.loc 2 112 18
	lw	a5,-24(s0)
	lw	a5,0(a5)
	.loc 2 112 26
	lw	a5,28(a5)
	.loc 2 112 14
	lw	a3,-64(s0)
	lw	a2,-60(s0)
	lw	a1,-56(s0)
	lw	a0,-24(s0)
	jalr	a5
.LVL1:
	sw	a0,-20(s0)
.L34:
	.loc 2 114 12
	lw	a5,-20(s0)
.L29:
	.loc 2 115 1
	mv	a0,a5
	lw	ra,60(sp)
	.cfi_restore 1
	lw	s0,56(sp)
	.cfi_restore 8
	.cfi_def_cfa 2, 64
	addi	sp,sp,64
	.cfi_def_cfa_offset 0
	jr	ra
	.cfi_endproc
.LFE223:
	.size	__metal_driver_riscv_clint0_register, .-__metal_driver_riscv_clint0_register
	.section	.text.__metal_driver_riscv_clint0_vector_register,"ax",@progbits
	.align	1
	.globl	__metal_driver_riscv_clint0_vector_register
	.type	__metal_driver_riscv_clint0_vector_register, @function
__metal_driver_riscv_clint0_vector_register:
.LFB224:
	.loc 2 119 55
	.cfi_startproc
	addi	sp,sp,-48
	.cfi_def_cfa_offset 48
	sw	s0,44(sp)
	.cfi_offset 8, -4
	addi	s0,sp,48
	.cfi_def_cfa 8, 0
	sw	a0,-36(s0)
	sw	a1,-40(s0)
	sw	a2,-44(s0)
	sw	a3,-48(s0)
	.loc 2 121 9
	li	a5,-1
	sw	a5,-20(s0)
	.loc 2 122 12
	lw	a5,-20(s0)
	.loc 2 123 1
	mv	a0,a5
	lw	s0,44(sp)
	.cfi_restore 8
	.cfi_def_cfa 2, 48
	addi	sp,sp,48
	.cfi_def_cfa_offset 0
	jr	ra
	.cfi_endproc
.LFE224:
	.size	__metal_driver_riscv_clint0_vector_register, .-__metal_driver_riscv_clint0_vector_register
	.section	.text.__metal_driver_riscv_clint0_get_vector_mode,"ax",@progbits
	.align	1
	.globl	__metal_driver_riscv_clint0_get_vector_mode
	.type	__metal_driver_riscv_clint0_get_vector_mode, @function
__metal_driver_riscv_clint0_get_vector_mode:
.LFB225:
	.loc 2 126 41
	.cfi_startproc
	addi	sp,sp,-32
	.cfi_def_cfa_offset 32
	sw	ra,28(sp)
	sw	s0,24(sp)
	.cfi_offset 1, -4
	.cfi_offset 8, -8
	addi	s0,sp,32
	.cfi_def_cfa 8, 0
	sw	a0,-20(s0)
	.loc 2 127 12
	call	__metal_controller_interrupt_vector_mode
	mv	a5,a0
	.loc 2 128 1
	mv	a0,a5
	lw	ra,28(sp)
	.cfi_restore 1
	lw	s0,24(sp)
	.cfi_restore 8
	.cfi_def_cfa 2, 32
	addi	sp,sp,32
	.cfi_def_cfa_offset 0
	jr	ra
	.cfi_endproc
.LFE225:
	.size	__metal_driver_riscv_clint0_get_vector_mode, .-__metal_driver_riscv_clint0_get_vector_mode
	.section	.text.__metal_driver_riscv_clint0_set_vector_mode,"ax",@progbits
	.align	1
	.globl	__metal_driver_riscv_clint0_set_vector_mode
	.type	__metal_driver_riscv_clint0_set_vector_mode, @function
__metal_driver_riscv_clint0_set_vector_mode:
.LFB226:
	.loc 2 131 65
	.cfi_startproc
	addi	sp,sp,-48
	.cfi_def_cfa_offset 48
	sw	ra,44(sp)
	sw	s0,40(sp)
	.cfi_offset 1, -4
	.cfi_offset 8, -8
	addi	s0,sp,48
	.cfi_def_cfa 8, 0
	sw	a0,-36(s0)
	sw	a1,-40(s0)
	.loc 2 132 9
	li	a5,-1
	sw	a5,-20(s0)
	.loc 2 133 36
	call	_get_cpu_intc
	sw	a0,-24(s0)
	.loc 2 135 8
	lw	a5,-24(s0)
	beq	a5,zero,.L44
	.loc 2 138 9
	lw	a4,-40(s0)
	li	a5,1
	bgtu	a4,a5,.L45
	.loc 2 141 22
	lw	a5,-24(s0)
	lw	a5,0(a5)
	.loc 2 141 30
	lw	a5,4(a5)
	.loc 2 141 18
	lw	a1,-40(s0)
	lw	a0,-24(s0)
	jalr	a5
.LVL2:
	sw	a0,-20(s0)
	.loc 2 142 13
	j	.L41
.L44:
	.loc 2 146 5
	nop
	j	.L41
.L45:
	.loc 2 144 13
	nop
.L41:
	.loc 2 147 12
	lw	a5,-20(s0)
	.loc 2 148 1
	mv	a0,a5
	lw	ra,44(sp)
	.cfi_restore 1
	lw	s0,40(sp)
	.cfi_restore 8
	.cfi_def_cfa 2, 48
	addi	sp,sp,48
	.cfi_def_cfa_offset 0
	jr	ra
	.cfi_endproc
.LFE226:
	.size	__metal_driver_riscv_clint0_set_vector_mode, .-__metal_driver_riscv_clint0_set_vector_mode
	.section	.text.__metal_driver_riscv_clint0_enable,"ax",@progbits
	.align	1
	.globl	__metal_driver_riscv_clint0_enable
	.type	__metal_driver_riscv_clint0_enable, @function
__metal_driver_riscv_clint0_enable:
.LFB227:
	.loc 2 151 48
	.cfi_startproc
	addi	sp,sp,-64
	.cfi_def_cfa_offset 64
	sw	ra,60(sp)
	sw	s0,56(sp)
	.cfi_offset 1, -4
	.cfi_offset 8, -8
	addi	s0,sp,64
	.cfi_def_cfa 8, 0
	sw	a0,-52(s0)
	sw	a1,-56(s0)
	.loc 2 152 9
	li	a5,-1
	sw	a5,-20(s0)
	.loc 2 154 8
	lw	a5,-56(s0)
	beq	a5,zero,.L47
.LBB7:
	.loc 2 155 33
	sw	zero,-24(s0)
	.loc 2 156 44
	call	_get_cpu_intc
	sw	a0,-32(s0)
	.loc 2 158 13
	lw	a0,-52(s0)
	call	__metal_driver_sifive_clint0_num_interrupts
	sw	a0,-36(s0)
.LBB8:
	.loc 2 160 18
	sw	zero,-28(s0)
	.loc 2 160 9
	j	.L48
.L51:
.LBB9:
	.loc 2 162 17
	lw	a1,-28(s0)
	lw	a0,-52(s0)
	call	__metal_driver_sifive_clint0_interrupt_lines
	sw	a0,-40(s0)
	.loc 2 164 17
	lw	a1,-28(s0)
	lw	a0,-52(s0)
	call	__metal_driver_sifive_clint0_interrupt_parents
	sw	a0,-24(s0)
	.loc 2 165 16
	lw	a4,-32(s0)
	lw	a5,-24(s0)
	bne	a4,a5,.L49
	.loc 2 165 34 discriminator 1
	lw	a4,-56(s0)
	lw	a5,-40(s0)
	beq	a4,a5,.L53
.L49:
	.loc 2 168 18 discriminator 2
	sw	zero,-24(s0)
.LBE9:
	.loc 2 160 46 discriminator 2
	lw	a5,-28(s0)
	addi	a5,a5,1
	sw	a5,-28(s0)
.L48:
	.loc 2 160 9 discriminator 1
	lw	a4,-28(s0)
	lw	a5,-36(s0)
	blt	a4,a5,.L51
	j	.L50
.L53:
.LBB10:
	.loc 2 166 17
	nop
.L50:
.LBE10:
.LBE8:
	.loc 2 172 12
	lw	a5,-24(s0)
	beq	a5,zero,.L47
	.loc 2 173 22
	lw	a5,-24(s0)
	lw	a5,0(a5)
	.loc 2 173 30
	lw	a5,36(a5)
	.loc 2 173 18
	lw	a1,-56(s0)
	lw	a0,-24(s0)
	jalr	a5
.LVL3:
	sw	a0,-20(s0)
.L47:
.LBE7:
	.loc 2 177 12
	lw	a5,-20(s0)
	.loc 2 178 1
	mv	a0,a5
	lw	ra,60(sp)
	.cfi_restore 1
	lw	s0,56(sp)
	.cfi_restore 8
	.cfi_def_cfa 2, 64
	addi	sp,sp,64
	.cfi_def_cfa_offset 0
	jr	ra
	.cfi_endproc
.LFE227:
	.size	__metal_driver_riscv_clint0_enable, .-__metal_driver_riscv_clint0_enable
	.section	.text.__metal_driver_riscv_clint0_disable,"ax",@progbits
	.align	1
	.globl	__metal_driver_riscv_clint0_disable
	.type	__metal_driver_riscv_clint0_disable, @function
__metal_driver_riscv_clint0_disable:
.LFB228:
	.loc 2 181 49
	.cfi_startproc
	addi	sp,sp,-64
	.cfi_def_cfa_offset 64
	sw	ra,60(sp)
	sw	s0,56(sp)
	.cfi_offset 1, -4
	.cfi_offset 8, -8
	addi	s0,sp,64
	.cfi_def_cfa 8, 0
	sw	a0,-52(s0)
	sw	a1,-56(s0)
	.loc 2 182 9
	li	a5,-1
	sw	a5,-20(s0)
	.loc 2 184 8
	lw	a5,-56(s0)
	beq	a5,zero,.L55
.LBB11:
	.loc 2 185 33
	sw	zero,-24(s0)
	.loc 2 186 44
	call	_get_cpu_intc
	sw	a0,-32(s0)
	.loc 2 188 13
	lw	a0,-52(s0)
	call	__metal_driver_sifive_clint0_num_interrupts
	sw	a0,-36(s0)
.LBB12:
	.loc 2 190 18
	sw	zero,-28(s0)
	.loc 2 190 9
	j	.L56
.L59:
.LBB13:
	.loc 2 192 17
	lw	a1,-28(s0)
	lw	a0,-52(s0)
	call	__metal_driver_sifive_clint0_interrupt_lines
	sw	a0,-40(s0)
	.loc 2 194 17
	lw	a1,-28(s0)
	lw	a0,-52(s0)
	call	__metal_driver_sifive_clint0_interrupt_parents
	sw	a0,-24(s0)
	.loc 2 195 16
	lw	a4,-32(s0)
	lw	a5,-24(s0)
	bne	a4,a5,.L57
	.loc 2 195 34 discriminator 1
	lw	a4,-56(s0)
	lw	a5,-40(s0)
	beq	a4,a5,.L61
.L57:
	.loc 2 198 18 discriminator 2
	sw	zero,-24(s0)
.LBE13:
	.loc 2 190 46 discriminator 2
	lw	a5,-28(s0)
	addi	a5,a5,1
	sw	a5,-28(s0)
.L56:
	.loc 2 190 9 discriminator 1
	lw	a4,-28(s0)
	lw	a5,-36(s0)
	blt	a4,a5,.L59
	j	.L58
.L61:
.LBB14:
	.loc 2 196 17
	nop
.L58:
.LBE14:
.LBE12:
	.loc 2 202 12
	lw	a5,-24(s0)
	beq	a5,zero,.L55
	.loc 2 203 22
	lw	a5,-24(s0)
	lw	a5,0(a5)
	.loc 2 203 30
	lw	a5,40(a5)
	.loc 2 203 18
	lw	a1,-56(s0)
	lw	a0,-24(s0)
	jalr	a5
.LVL4:
	sw	a0,-20(s0)
.L55:
.LBE11:
	.loc 2 207 12
	lw	a5,-20(s0)
	.loc 2 208 1
	mv	a0,a5
	lw	ra,60(sp)
	.cfi_restore 1
	lw	s0,56(sp)
	.cfi_restore 8
	.cfi_def_cfa 2, 64
	addi	sp,sp,64
	.cfi_def_cfa_offset 0
	jr	ra
	.cfi_endproc
.LFE228:
	.size	__metal_driver_riscv_clint0_disable, .-__metal_driver_riscv_clint0_disable
	.section	.text.__metal_driver_riscv_clint0_command_request,"ax",@progbits
	.align	1
	.globl	__metal_driver_riscv_clint0_command_request
	.type	__metal_driver_riscv_clint0_command_request, @function
__metal_driver_riscv_clint0_command_request:
.LFB229:
	.loc 2 211 66
	.cfi_startproc
	addi	sp,sp,-48
	.cfi_def_cfa_offset 48
	sw	ra,44(sp)
	sw	s0,40(sp)
	.cfi_offset 1, -4
	.cfi_offset 8, -8
	addi	s0,sp,48
	.cfi_def_cfa 8, 0
	sw	a0,-36(s0)
	sw	a1,-40(s0)
	sw	a2,-44(s0)
	.loc 2 213 9
	li	a5,-1
	sw	a5,-20(s0)
	.loc 2 214 41
	lw	a5,-36(s0)
	sw	a5,-24(s0)
	.loc 2 217 9
	lw	a0,-36(s0)
	call	__metal_driver_sifive_clint0_control_base
	sw	a0,-28(s0)
	.loc 2 219 5
	lw	a4,-40(s0)
	li	a5,4
	beq	a4,a5,.L63
	lw	a4,-40(s0)
	li	a5,4
	bgt	a4,a5,.L74
	lw	a4,-40(s0)
	li	a5,3
	beq	a4,a5,.L65
	lw	a4,-40(s0)
	li	a5,3
	bgt	a4,a5,.L74
	lw	a4,-40(s0)
	li	a5,1
	beq	a4,a5,.L66
	lw	a4,-40(s0)
	li	a5,2
	beq	a4,a5,.L67
	.loc 2 263 9
	j	.L74
.L66:
	.loc 2 221 12
	lw	a5,-44(s0)
	beq	a5,zero,.L75
	.loc 2 222 43
	lw	a0,-24(s0)
	call	__metal_clint0_mtime_get
	mv	a4,a0
	mv	a5,a1
	.loc 2 222 41
	lw	a3,-44(s0)
	sw	a4,0(a3)
	sw	a5,4(a3)
	.loc 2 223 16
	sw	zero,-20(s0)
	.loc 2 225 9
	j	.L75
.L67:
	.loc 2 227 12
	lw	a5,-44(s0)
	beq	a5,zero,.L76
	.loc 2 228 20
	lw	a5,-44(s0)
	lw	a5,0(a5)
	sw	a5,-32(s0)
	.loc 2 229 133
	lw	a5,-32(s0)
	slli	a5,a5,2
	mv	a4,a5
	.loc 2 229 123
	lw	a5,-28(s0)
	add	a5,a4,a5
	.loc 2 230 65
	sw	zero,0(a5)
	.loc 2 231 16
	sw	zero,-20(s0)
	.loc 2 233 9
	j	.L76
.L65:
	.loc 2 235 12
	lw	a5,-44(s0)
	beq	a5,zero,.L77
	.loc 2 236 20
	lw	a5,-44(s0)
	lw	a5,0(a5)
	sw	a5,-32(s0)
	.loc 2 237 131
	lw	a5,-32(s0)
	slli	a5,a5,2
	mv	a4,a5
	.loc 2 237 121
	lw	a5,-28(s0)
	add	a5,a4,a5
	.loc 2 237 15
	mv	a4,a5
	.loc 2 238 66
	li	a5,1
	sw	a5,0(a4)
	.loc 2 248 13
 #APP
# 248 "/home/gra2p/Documents/uva_courses/rp1/src/freedom-metal/src/drivers/riscv_clint0.c" 1
	fence o,i
# 0 "" 2
	.loc 2 249 136
 #NO_APP
	lw	a5,-32(s0)
	slli	a5,a5,2
	mv	a4,a5
	.loc 2 249 126
	lw	a5,-28(s0)
	add	a5,a4,a5
	.loc 2 249 19
	lw	a5,0(a5)
	.loc 2 249 16
	sw	a5,-20(s0)
	.loc 2 251 16
	sw	zero,-20(s0)
	.loc 2 253 9
	j	.L77
.L63:
	.loc 2 255 12
	sw	zero,-20(s0)
	.loc 2 256 12
	lw	a5,-44(s0)
	beq	a5,zero,.L78
	.loc 2 257 20
	lw	a5,-44(s0)
	lw	a5,0(a5)
	sw	a5,-32(s0)
	.loc 2 258 136
	lw	a5,-32(s0)
	slli	a5,a5,2
	mv	a4,a5
	.loc 2 258 126
	lw	a5,-28(s0)
	add	a5,a4,a5
	.loc 2 258 19
	lw	a5,0(a5)
	.loc 2 258 16
	sw	a5,-20(s0)
	.loc 2 261 9
	j	.L78
.L74:
	.loc 2 263 9
	nop
	j	.L69
.L75:
	.loc 2 225 9
	nop
	j	.L69
.L76:
	.loc 2 233 9
	nop
	j	.L69
.L77:
	.loc 2 253 9
	nop
	j	.L69
.L78:
	.loc 2 261 9
	nop
.L69:
	.loc 2 266 12
	lw	a5,-20(s0)
	.loc 2 267 1
	mv	a0,a5
	lw	ra,44(sp)
	.cfi_restore 1
	lw	s0,40(sp)
	.cfi_restore 8
	.cfi_def_cfa 2, 48
	addi	sp,sp,48
	.cfi_def_cfa_offset 0
	jr	ra
	.cfi_endproc
.LFE229:
	.size	__metal_driver_riscv_clint0_command_request, .-__metal_driver_riscv_clint0_command_request
	.section	.text.__metal_driver_riscv_clint0_clear_interrupt,"ax",@progbits
	.align	1
	.globl	__metal_driver_riscv_clint0_clear_interrupt
	.type	__metal_driver_riscv_clint0_clear_interrupt, @function
__metal_driver_riscv_clint0_clear_interrupt:
.LFB230:
	.loc 2 270 49
	.cfi_startproc
	addi	sp,sp,-48
	.cfi_def_cfa_offset 48
	sw	ra,44(sp)
	sw	s0,40(sp)
	.cfi_offset 1, -4
	.cfi_offset 8, -8
	addi	s0,sp,48
	.cfi_def_cfa 8, 0
	sw	a0,-36(s0)
	sw	a1,-40(s0)
	.loc 2 271 18
	call	metal_cpu_get_current_hartid
	mv	a5,a0
	.loc 2 271 9
	sw	a5,-20(s0)
	.loc 2 272 12
	addi	a5,s0,-20
	mv	a2,a5
	li	a1,2
	lw	a0,-36(s0)
	call	__metal_driver_riscv_clint0_command_request
	mv	a5,a0
	.loc 2 274 1
	mv	a0,a5
	lw	ra,44(sp)
	.cfi_restore 1
	lw	s0,40(sp)
	.cfi_restore 8
	.cfi_def_cfa 2, 48
	addi	sp,sp,48
	.cfi_def_cfa_offset 0
	jr	ra
	.cfi_endproc
.LFE230:
	.size	__metal_driver_riscv_clint0_clear_interrupt, .-__metal_driver_riscv_clint0_clear_interrupt
	.section	.text.__metal_driver_riscv_clint0_set_interrupt,"ax",@progbits
	.align	1
	.globl	__metal_driver_riscv_clint0_set_interrupt
	.type	__metal_driver_riscv_clint0_set_interrupt, @function
__metal_driver_riscv_clint0_set_interrupt:
.LFB231:
	.loc 2 277 49
	.cfi_startproc
	addi	sp,sp,-48
	.cfi_def_cfa_offset 48
	sw	ra,44(sp)
	sw	s0,40(sp)
	.cfi_offset 1, -4
	.cfi_offset 8, -8
	addi	s0,sp,48
	.cfi_def_cfa 8, 0
	sw	a0,-36(s0)
	sw	a1,-40(s0)
	.loc 2 278 18
	call	metal_cpu_get_current_hartid
	mv	a5,a0
	.loc 2 278 9
	sw	a5,-20(s0)
	.loc 2 279 12
	addi	a5,s0,-20
	mv	a2,a5
	li	a1,3
	lw	a0,-36(s0)
	call	__metal_driver_riscv_clint0_command_request
	mv	a5,a0
	.loc 2 281 1
	mv	a0,a5
	lw	ra,44(sp)
	.cfi_restore 1
	lw	s0,40(sp)
	.cfi_restore 8
	.cfi_def_cfa 2, 48
	addi	sp,sp,48
	.cfi_def_cfa_offset 0
	jr	ra
	.cfi_endproc
.LFE231:
	.size	__metal_driver_riscv_clint0_set_interrupt, .-__metal_driver_riscv_clint0_set_interrupt
	.globl	__metal_driver_vtable_riscv_clint0
	.section	.rodata.__metal_driver_vtable_riscv_clint0,"a"
	.align	2
	.type	__metal_driver_vtable_riscv_clint0, @object
	.size	__metal_driver_vtable_riscv_clint0, 100
__metal_driver_vtable_riscv_clint0:
	.word	__metal_driver_riscv_clint0_init
	.word	__metal_driver_riscv_clint0_set_vector_mode
	.word	__metal_driver_riscv_clint0_get_vector_mode
	.zero	8
	.word	__metal_driver_riscv_clint0_clear_interrupt
	.word	__metal_driver_riscv_clint0_set_interrupt
	.word	__metal_driver_riscv_clint0_register
	.word	__metal_driver_riscv_clint0_vector_register
	.word	__metal_driver_riscv_clint0_enable
	.word	__metal_driver_riscv_clint0_disable
	.zero	32
	.word	__metal_driver_riscv_clint0_command_request
	.word	__metal_driver_riscv_clint0_mtimecmp_set
	.zero	16
	.text
.Letext0:
	.file 3 "/home/gra2p/Documents/uva_courses/rp1/tools/riscv64-unknown-elf-toolchain-10.2.0-2020.12.8-x86_64-linux-ubuntu14/lib/gcc/riscv64-unknown-elf/10.2.0/include/stddef.h"
	.file 4 "/home/gra2p/Documents/uva_courses/rp1/src/freedom-metal/metal/interrupt.h"
	.file 5 "/home/gra2p/Documents/uva_courses/rp1/tools/riscv64-unknown-elf-toolchain-10.2.0-2020.12.8-x86_64-linux-ubuntu14/riscv64-unknown-elf/include/machine/_default_types.h"
	.file 6 "/home/gra2p/Documents/uva_courses/rp1/tools/riscv64-unknown-elf-toolchain-10.2.0-2020.12.8-x86_64-linux-ubuntu14/riscv64-unknown-elf/include/sys/_stdint.h"
	.file 7 "/home/gra2p/Documents/uva_courses/rp1/src/freedom-metal/metal/cpu.h"
	.file 8 "/home/gra2p/Documents/uva_courses/rp1/src/freedom-metal/metal/drivers/riscv_cpu.h"
	.file 9 "/home/gra2p/Documents/uva_courses/rp1/src/freedom-metal/metal/drivers/riscv_clint0.h"
	.file 10 "/home/gra2p/Documents/uva_courses/rp1/src/freedom-metal/metal/io.h"
	.file 11 "/home/gra2p/Documents/uva_courses/rp1/src/freedom-metal/metal/clock.h"
	.file 12 "/home/gra2p/Documents/uva_courses/rp1/src/freedom-metal/metal/memory.h"
	.file 13 "/home/gra2p/Documents/uva_courses/rp1/src/freedom-metal/metal/gpio.h"
	.file 14 "/home/gra2p/Documents/uva_courses/rp1/src/freedom-metal/metal/drivers/sifive_gpio0.h"
	.file 15 "/home/gra2p/Documents/uva_courses/rp1/src/freedom-metal/metal/led.h"
	.file 16 "/home/gra2p/Documents/uva_courses/rp1/src/freedom-metal/metal/drivers/sifive_gpio-leds.h"
	.file 17 "/home/gra2p/Documents/uva_courses/rp1/src/freedom-metal/metal/i2c.h"
	.file 18 "/home/gra2p/Documents/uva_courses/rp1/src/freedom-metal/metal/drivers/sifive_i2c0.h"
	.file 19 "/home/gra2p/Documents/uva_courses/rp1/src/freedom-metal/metal/pwm.h"
	.file 20 "/home/gra2p/Documents/uva_courses/rp1/src/freedom-metal/metal/drivers/sifive_pwm0.h"
	.file 21 "/home/gra2p/Documents/uva_courses/rp1/src/freedom-metal/metal/rtc.h"
	.file 22 "/home/gra2p/Documents/uva_courses/rp1/src/freedom-metal/metal/drivers/sifive_rtc0.h"
	.file 23 "/home/gra2p/Documents/uva_courses/rp1/src/freedom-metal/metal/spi.h"
	.file 24 "/home/gra2p/Documents/uva_courses/rp1/src/freedom-metal/metal/drivers/sifive_spi0.h"
	.file 25 "/home/gra2p/Documents/uva_courses/rp1/src/freedom-metal/metal/uart.h"
	.file 26 "/home/gra2p/Documents/uva_courses/rp1/src/freedom-metal/metal/drivers/sifive_uart0.h"
	.file 27 "/home/gra2p/Documents/uva_courses/rp1/src/freedom-metal/metal/watchdog.h"
	.file 28 "/home/gra2p/Documents/uva_courses/rp1/src/freedom-metal/metal/drivers/sifive_wdog0.h"