	.file	"sifive_spi0.c"
	.option nopic
	.attribute arch, "rv32i2p0_m2p0_a2p0_c2p0"
	.attribute unaligned_access, 0
	.attribute stack_align, 16
	.text
.Ltext0:
	.cfi_sections	.debug_frame
	.section	.text.__metal_driver_sifive_spi0_control_base,"ax",@progbits
	.align	1
	.type	__metal_driver_sifive_spi0_control_base, @function
__metal_driver_sifive_spi0_control_base:
.LFB178:
	.file 1 "./metal/machine.h"
	.loc 1 968 1
	.cfi_startproc
	addi	sp,sp,-32
	.cfi_def_cfa_offset 32
	sw	s0,28(sp)
	.cfi_offset 8, -4
	addi	s0,sp,32
	.cfi_def_cfa 8, 0
	sw	a0,-20(s0)
	.loc 1 969 6
	lw	a4,-20(s0)
	.loc 1 969 24
	lui	a5,%hi(__metal_dt_spi_10014000)
	addi	a5,a5,%lo(__metal_dt_spi_10014000)
	.loc 1 969 5
	bne	a4,a5,.L2
	.loc 1 970 10
	li	a5,268517376
	j	.L3
.L2:
	.loc 1 972 11
	lw	a4,-20(s0)
	.loc 1 972 29
	lui	a5,%hi(__metal_dt_spi_10024000)
	addi	a5,a5,%lo(__metal_dt_spi_10024000)
	.loc 1 972 10
	bne	a4,a5,.L4
	.loc 1 973 10
	li	a5,268582912
	j	.L3
.L4:
	.loc 1 975 11
	lw	a4,-20(s0)
	.loc 1 975 29
	lui	a5,%hi(__metal_dt_spi_10034000)
	addi	a5,a5,%lo(__metal_dt_spi_10034000)
	.loc 1 975 10
	bne	a4,a5,.L5
	.loc 1 976 10
	li	a5,268648448
	j	.L3
.L5:
	.loc 1 979 10
	li	a5,0
.L3:
	.loc 1 981 1
	mv	a0,a5
	lw	s0,28(sp)
	.cfi_restore 8
	.cfi_def_cfa 2, 32
	addi	sp,sp,32
	.cfi_def_cfa_offset 0
	jr	ra
	.cfi_endproc
.LFE178:
	.size	__metal_driver_sifive_spi0_control_base, .-__metal_driver_sifive_spi0_control_base
	.section	.text.__metal_driver_sifive_spi0_clock,"ax",@progbits
	.align	1
	.type	__metal_driver_sifive_spi0_clock, @function
__metal_driver_sifive_spi0_clock:
.LFB180:
	.loc 1 1000 1
	.cfi_startproc
	addi	sp,sp,-32
	.cfi_def_cfa_offset 32
	sw	s0,28(sp)
	.cfi_offset 8, -4
	addi	s0,sp,32
	.cfi_def_cfa 8, 0
	sw	a0,-20(s0)
	.loc 1 1001 6
	lw	a4,-20(s0)
	.loc 1 1001 24
	lui	a5,%hi(__metal_dt_spi_10014000)
	addi	a5,a5,%lo(__metal_dt_spi_10014000)
	.loc 1 1001 5
	bne	a4,a5,.L7
	.loc 1 1002 10
	lui	a5,%hi(__metal_dt_clock_4)
	addi	a5,a5,%lo(__metal_dt_clock_4)
	j	.L8
.L7:
	.loc 1 1004 11
	lw	a4,-20(s0)
	.loc 1 1004 29
	lui	a5,%hi(__metal_dt_spi_10024000)
	addi	a5,a5,%lo(__metal_dt_spi_10024000)
	.loc 1 1004 10
	bne	a4,a5,.L9
	.loc 1 1005 10
	lui	a5,%hi(__metal_dt_clock_4)
	addi	a5,a5,%lo(__metal_dt_clock_4)
	j	.L8
.L9:
	.loc 1 1007 11
	lw	a4,-20(s0)
	.loc 1 1007 29
	lui	a5,%hi(__metal_dt_spi_10034000)
	addi	a5,a5,%lo(__metal_dt_spi_10034000)
	.loc 1 1007 10
	bne	a4,a5,.L10
	.loc 1 1008 10
	lui	a5,%hi(__metal_dt_clock_4)
	addi	a5,a5,%lo(__metal_dt_clock_4)
	j	.L8
.L10:
	.loc 1 1011 10
	li	a5,0
.L8:
	.loc 1 1013 1
	mv	a0,a5
	lw	s0,28(sp)
	.cfi_restore 8
	.cfi_def_cfa 2, 32
	addi	sp,sp,32
	.cfi_def_cfa_offset 0
	jr	ra
	.cfi_endproc
.LFE180:
	.size	__metal_driver_sifive_spi0_clock, .-__metal_driver_sifive_spi0_clock
	.section	.text.__metal_driver_sifive_spi0_pinmux,"ax",@progbits
	.align	1
	.type	__metal_driver_sifive_spi0_pinmux, @function
__metal_driver_sifive_spi0_pinmux:
.LFB181:
	.loc 1 1016 1
	.cfi_startproc
	addi	sp,sp,-32
	.cfi_def_cfa_offset 32
	sw	s0,28(sp)
	.cfi_offset 8, -4
	addi	s0,sp,32
	.cfi_def_cfa 8, 0
	sw	a0,-20(s0)
	.loc 1 1017 6
	lw	a4,-20(s0)
	.loc 1 1017 24
	lui	a5,%hi(__metal_dt_spi_10014000)
	addi	a5,a5,%lo(__metal_dt_spi_10014000)
	.loc 1 1017 5
	bne	a4,a5,.L12
	.loc 1 1018 10
	lui	a5,%hi(__metal_dt_gpio_10012000)
	addi	a5,a5,%lo(__metal_dt_gpio_10012000)
	j	.L13
.L12:
	.loc 1 1020 11
	lw	a4,-20(s0)
	.loc 1 1020 29
	lui	a5,%hi(__metal_dt_spi_10024000)
	addi	a5,a5,%lo(__metal_dt_spi_10024000)
	.loc 1 1020 10
	bne	a4,a5,.L14
	.loc 1 1021 10
	lui	a5,%hi(__metal_dt_gpio_10012000)
	addi	a5,a5,%lo(__metal_dt_gpio_10012000)
	j	.L13
.L14:
	.loc 1 1023 11
	lw	a4,-20(s0)
	.loc 1 1023 29
	lui	a5,%hi(__metal_dt_spi_10034000)
	addi	a5,a5,%lo(__metal_dt_spi_10034000)
	.loc 1 1023 10
	bne	a4,a5,.L15
	.loc 1 1024 10
	lui	a5,%hi(__metal_dt_gpio_10012000)
	addi	a5,a5,%lo(__metal_dt_gpio_10012000)
	j	.L13
.L15:
	.loc 1 1027 10
	li	a5,0
.L13:
	.loc 1 1029 1
	mv	a0,a5
	lw	s0,28(sp)
	.cfi_restore 8
	.cfi_def_cfa 2, 32
	addi	sp,sp,32
	.cfi_def_cfa_offset 0
	jr	ra
	.cfi_endproc
.LFE181:
	.size	__metal_driver_sifive_spi0_pinmux, .-__metal_driver_sifive_spi0_pinmux
	.section	.text.__metal_driver_sifive_spi0_pinmux_output_selector,"ax",@progbits
	.align	1
	.type	__metal_driver_sifive_spi0_pinmux_output_selector, @function
__metal_driver_sifive_spi0_pinmux_output_selector:
.LFB182:
	.loc 1 1032 1
	.cfi_startproc
	addi	sp,sp,-32
	.cfi_def_cfa_offset 32
	sw	s0,28(sp)
	.cfi_offset 8, -4
	addi	s0,sp,32
	.cfi_def_cfa 8, 0
	sw	a0,-20(s0)
	.loc 1 1033 6
	lw	a4,-20(s0)
	.loc 1 1033 24
	lui	a5,%hi(__metal_dt_spi_10014000)
	addi	a5,a5,%lo(__metal_dt_spi_10014000)
	.loc 1 1033 5
	bne	a4,a5,.L17
	.loc 1 1034 10
	li	a5,0
	j	.L18
.L17:
	.loc 1 1036 11
	lw	a4,-20(s0)
	.loc 1 1036 29
	lui	a5,%hi(__metal_dt_spi_10024000)
	addi	a5,a5,%lo(__metal_dt_spi_10024000)
	.loc 1 1036 10
	bne	a4,a5,.L19
	.loc 1 1037 10
	li	a5,0
	j	.L18
.L19:
	.loc 1 1039 11
	lw	a4,-20(s0)
	.loc 1 1039 29
	lui	a5,%hi(__metal_dt_spi_10034000)
	addi	a5,a5,%lo(__metal_dt_spi_10034000)
	.loc 1 1039 10
	bne	a4,a5,.L20
	.loc 1 1040 10
	li	a5,0
	j	.L18
.L20:
	.loc 1 1043 10
	li	a5,0
.L18:
	.loc 1 1045 1
	mv	a0,a5
	lw	s0,28(sp)
	.cfi_restore 8
	.cfi_def_cfa 2, 32
	addi	sp,sp,32
	.cfi_def_cfa_offset 0
	jr	ra
	.cfi_endproc
.LFE182:
	.size	__metal_driver_sifive_spi0_pinmux_output_selector, .-__metal_driver_sifive_spi0_pinmux_output_selector
	.section	.text.__metal_driver_sifive_spi0_pinmux_source_selector,"ax",@progbits
	.align	1
	.type	__metal_driver_sifive_spi0_pinmux_source_selector, @function
__metal_driver_sifive_spi0_pinmux_source_selector:
.LFB183:
	.loc 1 1048 1
	.cfi_startproc
	addi	sp,sp,-32
	.cfi_def_cfa_offset 32
	sw	s0,28(sp)
	.cfi_offset 8, -4
	addi	s0,sp,32
	.cfi_def_cfa 8, 0
	sw	a0,-20(s0)
	.loc 1 1049 6
	lw	a4,-20(s0)
	.loc 1 1049 24
	lui	a5,%hi(__metal_dt_spi_10014000)
	addi	a5,a5,%lo(__metal_dt_spi_10014000)
	.loc 1 1049 5
	bne	a4,a5,.L22
	.loc 1 1050 10
	li	a5,0
	j	.L23
.L22:
	.loc 1 1052 11
	lw	a4,-20(s0)
	.loc 1 1052 29
	lui	a5,%hi(__metal_dt_spi_10024000)
	addi	a5,a5,%lo(__metal_dt_spi_10024000)
	.loc 1 1052 10
	bne	a4,a5,.L24
	.loc 1 1053 10
	li	a5,60
	j	.L23
.L24:
	.loc 1 1055 11
	lw	a4,-20(s0)
	.loc 1 1055 29
	lui	a5,%hi(__metal_dt_spi_10034000)
	addi	a5,a5,%lo(__metal_dt_spi_10034000)
	.loc 1 1055 10
	bne	a4,a5,.L25
	.loc 1 1056 10
	li	a5,-67108864
	j	.L23
.L25:
	.loc 1 1059 10
	li	a5,0
.L23:
	.loc 1 1061 1
	mv	a0,a5
	lw	s0,28(sp)
	.cfi_restore 8
	.cfi_def_cfa 2, 32
	addi	sp,sp,32
	.cfi_def_cfa_offset 0
	jr	ra
	.cfi_endproc
.LFE183:
	.size	__metal_driver_sifive_spi0_pinmux_source_selector, .-__metal_driver_sifive_spi0_pinmux_source_selector
	.weak	__metal_memory_table
	.section	.data.__metal_memory_table,"aw"
	.align	2
	.type	__metal_memory_table, @object
	.size	__metal_memory_table, 12
__metal_memory_table:
	.word	__metal_dt_mem_dtim_80000000
	.word	__metal_dt_mem_itim_8000000
	.word	__metal_dt_mem_spi_10014000
	.weak	__metal_cpu_table
	.section	.sdata.__metal_cpu_table,"aw"
	.align	2
	.type	__metal_cpu_table, @object
	.size	__metal_cpu_table, 4
__metal_cpu_table:
	.word	__metal_dt_cpu_0
	.weak	__metal_gpio_table
	.section	.sdata.__metal_gpio_table,"aw"
	.align	2
	.type	__metal_gpio_table, @object
	.size	__metal_gpio_table, 4
__metal_gpio_table:
	.word	__metal_dt_gpio_10012000
	.weak	__metal_button_table
	.section	.sbss.__metal_button_table,"aw",@nobits
	.align	2
	.type	__metal_button_table, @object
	.size	__metal_button_table, 4
__metal_button_table:
	.zero	4
	.weak	__metal_led_table
	.section	.data.__metal_led_table,"aw"
	.align	2
	.type	__metal_led_table, @object
	.size	__metal_led_table, 12
__metal_led_table:
	.word	__metal_dt_led_0
	.word	__metal_dt_led_1
	.word	__metal_dt_led_2
	.weak	__metal_switch_table
	.section	.sbss.__metal_switch_table,"aw",@nobits
	.align	2
	.type	__metal_switch_table, @object
	.size	__metal_switch_table, 4
__metal_switch_table:
	.zero	4
	.weak	__metal_i2c_table
	.section	.sdata.__metal_i2c_table,"aw"
	.align	2
	.type	__metal_i2c_table, @object
	.size	__metal_i2c_table, 4
__metal_i2c_table:
	.word	__metal_dt_i2c_10016000
	.weak	__metal_pwm_table
	.section	.data.__metal_pwm_table,"aw"
	.align	2
	.type	__metal_pwm_table, @object
	.size	__metal_pwm_table, 12
__metal_pwm_table:
	.word	__metal_dt_pwm_10015000
	.word	__metal_dt_pwm_10025000
	.word	__metal_dt_pwm_10035000
	.weak	__metal_rtc_table
	.section	.sdata.__metal_rtc_table,"aw"
	.align	2
	.type	__metal_rtc_table, @object
	.size	__metal_rtc_table, 4
__metal_rtc_table:
	.word	__metal_dt_rtc_10000000
	.weak	__metal_spi_table
	.section	.data.__metal_spi_table,"aw"
	.align	2
	.type	__metal_spi_table, @object
	.size	__metal_spi_table, 12
__metal_spi_table:
	.word	__metal_dt_spi_10014000
	.word	__metal_dt_spi_10024000
	.word	__metal_dt_spi_10034000
	.weak	__metal_uart_table
	.section	.sdata.__metal_uart_table,"aw"
	.align	2
	.type	__metal_uart_table, @object
	.size	__metal_uart_table, 8
__metal_uart_table:
	.word	__metal_dt_serial_10013000
	.word	__metal_dt_serial_10023000
	.weak	__metal_simuart_table
	.section	.sbss.__metal_simuart_table,"aw",@nobits
	.align	2
	.type	__metal_simuart_table, @object
	.size	__metal_simuart_table, 4
__metal_simuart_table:
	.zero	4
	.weak	__metal_wdog_table
	.section	.sdata.__metal_wdog_table,"aw"
	.align	2
	.type	__metal_wdog_table, @object
	.size	__metal_wdog_table, 4
__metal_wdog_table:
	.word	__metal_dt_aon_10000000
	.section	.text.configure_spi,"ax",@progbits
	.align	1
	.type	configure_spi, @function
configure_spi:
.LFB241:
	.file 2 "/home/gra2p/Documents/uva_courses/rp1/src/freedom-metal/src/drivers/sifive_spi0.c"
	.loc 2 56 59
	.cfi_startproc
	addi	sp,sp,-48
	.cfi_def_cfa_offset 48
	sw	ra,44(sp)
	sw	s0,40(sp)
	.cfi_offset 1, -4
	.cfi_offset 8, -8
	addi	s0,sp,48
	.cfi_def_cfa 8, 0
	sw	a0,-36(s0)
	sw	a1,-40(s0)
	.loc 2 58 9
	lw	a0,-36(s0)
	call	__metal_driver_sifive_spi0_control_base
	mv	a5,a0
	.loc 2 57 10
	sw	a5,-20(s0)
	.loc 2 60 151
	lw	a5,-20(s0)
	addi	a5,a5,64
	lw	a5,0(a5)
	lw	a4,-20(s0)
	addi	a4,a4,64
	andi	a5,a5,-4
	sw	a5,0(a4)
	.loc 2 61 19
	lw	a5,-40(s0)
	lw	a5,0(a5)
	.loc 2 61 5
	li	a4,2
	beq	a5,a4,.L27
	li	a4,2
	bgtu	a5,a4,.L28
	beq	a5,zero,.L29
	li	a4,1
	beq	a5,a4,.L30
	j	.L28
.L29:
	.loc 2 63 155
	lw	a5,-20(s0)
	addi	a5,a5,64
	mv	a3,a5
	lw	a5,-20(s0)
	addi	a5,a5,64
	mv	a4,a5
	lw	a5,0(a3)
	sw	a5,0(a4)
	.loc 2 64 9
	j	.L31
.L30:
	.loc 2 66 19
	lw	a5,-40(s0)
	lw	a5,24(a5)
	.loc 2 66 12
	bne	a5,zero,.L32
	.loc 2 67 159
	lw	a5,-20(s0)
	addi	a5,a5,64
	lw	a5,0(a5)
	lw	a4,-20(s0)
	addi	a4,a4,64
	ori	a5,a5,1
	sw	a5,0(a4)
	.loc 2 70 9
	j	.L31
.L32:
	.loc 2 69 159
	lw	a5,-20(s0)
	addi	a5,a5,64
	mv	a3,a5
	lw	a5,-20(s0)
	addi	a5,a5,64
	mv	a4,a5
	lw	a5,0(a3)
	sw	a5,0(a4)
	.loc 2 70 9
	j	.L31
.L27:
	.loc 2 72 19
	lw	a5,-40(s0)
	lw	a5,24(a5)
	.loc 2 72 12
	bne	a5,zero,.L34
	.loc 2 73 159
	lw	a5,-20(s0)
	addi	a5,a5,64
	lw	a5,0(a5)
	lw	a4,-20(s0)
	addi	a4,a4,64
	ori	a5,a5,2
	sw	a5,0(a4)
	.loc 2 76 9
	j	.L31
.L34:
	.loc 2 75 159
	lw	a5,-20(s0)
	addi	a5,a5,64
	mv	a3,a5
	lw	a5,-20(s0)
	addi	a5,a5,64
	mv	a4,a5
	lw	a5,0(a3)
	sw	a5,0(a4)
	.loc 2 76 9
	j	.L31
.L28:
	.loc 2 79 16
	li	a5,-1
	j	.L36
.L31:
	.loc 2 83 9
	lw	a5,-40(s0)
	lbu	a5,4(a5)
	andi	a5,a5,1
	andi	a5,a5,0xff
	.loc 2 83 8
	beq	a5,zero,.L37
	.loc 2 84 153
	lw	a5,-20(s0)
	addi	a5,a5,4
	lw	a5,0(a5)
	lw	a4,-20(s0)
	addi	a4,a4,4
	ori	a5,a5,2
	sw	a5,0(a4)
	j	.L38
.L37:
	.loc 2 87 153
	lw	a5,-20(s0)
	addi	a5,a5,4
	lw	a5,0(a5)
	lw	a4,-20(s0)
	addi	a4,a4,4
	andi	a5,a5,-3
	sw	a5,0(a4)
.L38:
	.loc 2 92 9
	lw	a5,-40(s0)
	lbu	a5,4(a5)
	andi	a5,a5,2
	andi	a5,a5,0xff
	.loc 2 92 8
	beq	a5,zero,.L39
	.loc 2 93 153
	lw	a5,-20(s0)
	addi	a5,a5,4
	lw	a5,0(a5)
	lw	a4,-20(s0)
	addi	a4,a4,4
	ori	a5,a5,1
	sw	a5,0(a4)
	j	.L40
.L39:
	.loc 2 96 153
	lw	a5,-20(s0)
	addi	a5,a5,4
	lw	a5,0(a5)
	lw	a4,-20(s0)
	addi	a4,a4,4
	andi	a5,a5,-2
	sw	a5,0(a4)
.L40:
	.loc 2 101 9
	lw	a5,-40(s0)
	lbu	a5,4(a5)
	andi	a5,a5,4
	andi	a5,a5,0xff
	.loc 2 101 8
	beq	a5,zero,.L41
	.loc 2 102 155
	lw	a5,-20(s0)
	addi	a5,a5,64
	lw	a5,0(a5)
	lw	a4,-20(s0)
	addi	a4,a4,64
	ori	a5,a5,4
	sw	a5,0(a4)
	j	.L42
.L41:
	.loc 2 104 155
	lw	a5,-20(s0)
	addi	a5,a5,64
	lw	a5,0(a5)
	lw	a4,-20(s0)
	addi	a4,a4,64
	andi	a5,a5,-5
	sw	a5,0(a4)
.L42:
	.loc 2 108 151
	lw	a5,-20(s0)
	addi	a5,a5,64
	lw	a5,0(a5)
	lw	a4,-20(s0)
	addi	a4,a4,64
	andi	a5,a5,-9
	sw	a5,0(a4)
	.loc 2 111 9
	lw	a5,-40(s0)
	lbu	a5,4(a5)
	andi	a5,a5,8
	andi	a5,a5,0xff
	.loc 2 111 8
	beq	a5,zero,.L43
	.loc 2 112 115
	lw	a5,-20(s0)
	.loc 2 112 143
	addi	a5,a5,20
	.loc 2 112 155
	sw	zero,0(a5)
	j	.L44
.L43:
	.loc 2 114 115
	lw	a5,-20(s0)
	.loc 2 114 143
	addi	a5,a5,20
	.loc 2 114 12
	mv	a4,a5
	.loc 2 114 155
	li	a5,1
	sw	a5,0(a4)
.L44:
	.loc 2 118 116
	lw	a5,-20(s0)
	.loc 2 118 144
	addi	a5,a5,64
	.loc 2 118 12
	lw	a4,0(a5)
	.loc 2 118 156
	li	a5,983040
	and	a4,a4,a5
	.loc 2 118 8
	li	a5,524288
	beq	a4,a5,.L45
	.loc 2 120 155
	lw	a5,-20(s0)
	addi	a5,a5,64
	lw	a4,0(a5)
	lw	a5,-20(s0)
	addi	a5,a5,64
	mv	a3,a5
	li	a5,-983040
	addi	a5,a5,-1
	and	a5,a4,a5
	sw	a5,0(a3)
	.loc 2 121 155
	lw	a5,-20(s0)
	addi	a5,a5,64
	lw	a4,0(a5)
	lw	a5,-20(s0)
	addi	a5,a5,64
	mv	a3,a5
	li	a5,524288
	or	a5,a4,a5
	sw	a5,0(a3)
.L45:
	.loc 2 126 111
	lw	a5,-20(s0)
	.loc 2 126 139
	addi	a5,a5,16
	.loc 2 126 8
	mv	a4,a5
	.loc 2 126 159
	lw	a5,-40(s0)
	lw	a5,8(a5)
	.loc 2 126 151
	sw	a5,0(a4)
	.loc 2 135 111
	lw	a5,-20(s0)
	.loc 2 135 139
	addi	a5,a5,96
	.loc 2 135 151
	sw	zero,0(a5)
	.loc 2 137 12
	li	a5,0
.L36:
	.loc 2 138 1
	mv	a0,a5
	lw	ra,44(sp)
	.cfi_restore 1
	lw	s0,40(sp)
	.cfi_restore 8
	.cfi_def_cfa 2, 48
	addi	sp,sp,48
	.cfi_def_cfa_offset 0
	jr	ra
	.cfi_endproc
.LFE241:
	.size	configure_spi, .-configure_spi
	.section	.text.spi_mode_switch,"ax",@progbits
	.align	1
	.type	spi_mode_switch, @function
spi_mode_switch:
.LFB242:
	.loc 2 142 55
	.cfi_startproc
	addi	sp,sp,-48
	.cfi_def_cfa_offset 48
	sw	ra,44(sp)
	sw	s0,40(sp)
	.cfi_offset 1, -4
	.cfi_offset 8, -8
	addi	s0,sp,48
	.cfi_def_cfa 8, 0
	sw	a0,-36(s0)
	sw	a1,-40(s0)
	sw	a2,-44(s0)
	.loc 2 144 9
	lw	a0,-36(s0)
	call	__metal_driver_sifive_spi0_control_base
	mv	a5,a0
	.loc 2 143 10
	sw	a5,-20(s0)
	.loc 2 146 15
	lw	a5,-40(s0)
	lw	a5,24(a5)
	.loc 2 146 8
	lw	a4,-44(s0)
	bne	a4,a5,.L46
	.loc 2 147 155
	lw	a5,-20(s0)
	addi	a5,a5,64
	lw	a5,0(a5)
	lw	a4,-20(s0)
	addi	a4,a4,64
	andi	a5,a5,-4
	sw	a5,0(a4)
	.loc 2 148 23
	lw	a5,-40(s0)
	lw	a5,0(a5)
	.loc 2 148 9
	li	a4,1
	beq	a5,a4,.L48
	li	a4,2
	beq	a5,a4,.L49
	.loc 2 157 13
	j	.L46
.L48:
	.loc 2 150 159
	lw	a5,-20(s0)
	addi	a5,a5,64
	lw	a5,0(a5)
	lw	a4,-20(s0)
	addi	a4,a4,64
	ori	a5,a5,1
	sw	a5,0(a4)
	.loc 2 151 13
	j	.L46
.L49:
	.loc 2 153 159
	lw	a5,-20(s0)
	addi	a5,a5,64
	lw	a5,0(a5)
	lw	a4,-20(s0)
	addi	a4,a4,64
	ori	a5,a5,2
	sw	a5,0(a4)
	.loc 2 154 13
	nop
.L46:
	.loc 2 160 1
	lw	ra,44(sp)
	.cfi_restore 1
	lw	s0,40(sp)
	.cfi_restore 8
	.cfi_def_cfa 2, 48
	addi	sp,sp,48
	.cfi_def_cfa_offset 0
	jr	ra
	.cfi_endproc
.LFE242:
	.size	spi_mode_switch, .-spi_mode_switch
	.section	.text.__metal_driver_sifive_spi0_transfer,"ax",@progbits
	.align	1
	.globl	__metal_driver_sifive_spi0_transfer
	.type	__metal_driver_sifive_spi0_transfer, @function
__metal_driver_sifive_spi0_transfer:
.LFB243:
	.loc 2 165 55
	.cfi_startproc
	addi	sp,sp,-80
	.cfi_def_cfa_offset 80
	sw	ra,76(sp)
	sw	s0,72(sp)
	.cfi_offset 1, -4
	.cfi_offset 8, -8
	addi	s0,sp,80
	.cfi_def_cfa 8, 0
	sw	a0,-52(s0)
	sw	a1,-56(s0)
	sw	a2,-60(s0)
	sw	a3,-64(s0)
	sw	a4,-68(s0)
	.loc 2 166 40
	lw	a5,-52(s0)
	sw	a5,-24(s0)
	.loc 2 167 25
	lw	a0,-52(s0)
	call	__metal_driver_sifive_spi0_control_base
	mv	a5,a0
	.loc 2 167 10
	sw	a5,-28(s0)
	.loc 2 168 9
	sw	zero,-32(s0)
	.loc 2 169 12
	sw	zero,-20(s0)
	.loc 2 171 10
	lw	a1,-56(s0)
	lw	a0,-24(s0)
	call	configure_spi
	sw	a0,-32(s0)
	.loc 2 172 8
	lw	a5,-32(s0)
	beq	a5,zero,.L52
	.loc 2 173 16
	lw	a5,-32(s0)
	j	.L53
.L52:
	.loc 2 177 151
	lw	a5,-28(s0)
	addi	a5,a5,24
	lw	a5,0(a5)
	lw	a4,-28(s0)
	addi	a4,a4,24
	andi	a5,a5,-4
	sw	a5,0(a4)
	.loc 2 178 151
	lw	a5,-28(s0)
	addi	a5,a5,24
	lw	a5,0(a5)
	lw	a4,-28(s0)
	addi	a4,a4,24
	ori	a5,a5,2
	sw	a5,0(a4)
	.loc 2 185 12
	sw	zero,-20(s0)
	.loc 2 185 5
	j	.L54
.L62:
	.loc 2 187 15
	nop
.L55:
	.loc 2 187 122 discriminator 1
	lw	a5,-28(s0)
	.loc 2 187 150 discriminator 1
	addi	a5,a5,72
	.loc 2 187 18 discriminator 1
	lw	a5,0(a5)
	.loc 2 187 15 discriminator 1
	blt	a5,zero,.L55
	.loc 2 190 12
	lw	a5,-64(s0)
	beq	a5,zero,.L56
	.loc 2 191 165
	lw	a4,-64(s0)
	lw	a5,-20(s0)
	add	a5,a4,a5
	.loc 2 191 117
	lw	a4,-28(s0)
	.loc 2 191 145
	addi	a4,a4,72
	.loc 2 191 165
	lbu	a5,0(a5)
	.loc 2 191 157
	sb	a5,0(a4)
	j	.L57
.L56:
	.loc 2 193 117
	lw	a5,-28(s0)
	.loc 2 193 145
	addi	a5,a5,72
	.loc 2 193 157
	sb	zero,0(a5)
.L57:
	.loc 2 196 19
	call	metal_time
	mv	a2,a0
	mv	a3,a1
	.loc 2 196 17
	li	a0,1
	li	a1,0
	add	a4,a2,a0
	mv	a6,a4
	sltu	a6,a6,a2
	add	a5,a3,a1
	add	a3,a6,a5
	mv	a5,a3
	sw	a4,-40(s0)
	sw	a5,-36(s0)
	.loc 2 198 15
	j	.L58
.L60:
	.loc 2 200 17
	call	metal_time
	mv	a4,a0
	mv	a5,a1
	.loc 2 200 16
	lw	a3,-36(s0)
	mv	a2,a5
	blt	a3,a2,.L90
	lw	a3,-36(s0)
	mv	a2,a5
	bne	a3,a2,.L58
	lw	a3,-40(s0)
	mv	a5,a4
	bltu	a3,a5,.L90
	j	.L58
.L90:
	.loc 2 201 163
	lw	a5,-28(s0)
	addi	a5,a5,24
	lw	a5,0(a5)
	lw	a4,-28(s0)
	addi	a4,a4,24
	andi	a5,a5,-4
	sw	a5,0(a4)
	.loc 2 204 24
	li	a5,1
	j	.L53
.L58:
	.loc 2 198 132
	lw	a5,-28(s0)
	.loc 2 198 160
	addi	a5,a5,76
	.loc 2 198 24
	lw	a5,0(a5)
	sw	a5,-44(s0)
	.loc 2 198 16
	lw	a5,-44(s0)
	.loc 2 198 15
	blt	a5,zero,.L60
	.loc 2 208 12
	lw	a5,-68(s0)
	beq	a5,zero,.L61
	.loc 2 209 19
	lw	a4,-68(s0)
	lw	a5,-20(s0)
	add	a5,a4,a5
	.loc 2 209 25
	lw	a4,-44(s0)
	andi	a4,a4,0xff
	.loc 2 209 23
	sb	a4,0(a5)
.L61:
	.loc 2 185 39 discriminator 2
	lw	a5,-20(s0)
	addi	a5,a5,1
	sw	a5,-20(s0)
.L54:
	.loc 2 185 27 discriminator 1
	lw	a5,-56(s0)
	lw	a5,12(a5)
	.loc 2 185 5 discriminator 1
	lw	a4,-20(s0)
	bltu	a4,a5,.L62
	.loc 2 214 5
	li	a2,2
	lw	a1,-56(s0)
	lw	a0,-24(s0)
	call	spi_mode_switch
	.loc 2 217 5
	j	.L63
.L71:
	.loc 2 219 15
	nop
.L64:
	.loc 2 219 122 discriminator 1
	lw	a5,-28(s0)
	.loc 2 219 150 discriminator 1
	addi	a5,a5,72
	.loc 2 219 18 discriminator 1
	lw	a5,0(a5)
	.loc 2 219 15 discriminator 1
	blt	a5,zero,.L64
	.loc 2 222 12
	lw	a5,-64(s0)
	beq	a5,zero,.L65
	.loc 2 223 165
	lw	a4,-64(s0)
	lw	a5,-20(s0)
	add	a5,a4,a5
	.loc 2 223 117
	lw	a4,-28(s0)
	.loc 2 223 145
	addi	a4,a4,72
	.loc 2 223 165
	lbu	a5,0(a5)
	.loc 2 223 157
	sb	a5,0(a4)
	j	.L66
.L65:
	.loc 2 225 117
	lw	a5,-28(s0)
	.loc 2 225 145
	addi	a5,a5,72
	.loc 2 225 157
	sb	zero,0(a5)
.L66:
	.loc 2 228 19
	call	metal_time
	mv	a2,a0
	mv	a3,a1
	.loc 2 228 17
	li	a0,1
	li	a1,0
	add	a4,a2,a0
	mv	a6,a4
	sltu	a6,a6,a2
	add	a5,a3,a1
	add	a3,a6,a5
	mv	a5,a3
	sw	a4,-40(s0)
	sw	a5,-36(s0)
	.loc 2 230 15
	j	.L67
.L69:
	.loc 2 232 17
	call	metal_time
	mv	a4,a0
	mv	a5,a1
	.loc 2 232 16
	lw	a3,-36(s0)
	mv	a2,a5
	blt	a3,a2,.L91
	lw	a3,-36(s0)
	mv	a2,a5
	bne	a3,a2,.L67
	lw	a3,-40(s0)
	mv	a5,a4
	bltu	a3,a5,.L91
	j	.L67
.L91:
	.loc 2 233 163
	lw	a5,-28(s0)
	addi	a5,a5,24
	lw	a5,0(a5)
	lw	a4,-28(s0)
	addi	a4,a4,24
	andi	a5,a5,-4
	sw	a5,0(a4)
	.loc 2 236 24
	li	a5,1
	j	.L53
.L67:
	.loc 2 230 132
	lw	a5,-28(s0)
	.loc 2 230 160
	addi	a5,a5,76
	.loc 2 230 24
	lw	a5,0(a5)
	sw	a5,-44(s0)
	.loc 2 230 16
	lw	a5,-44(s0)
	.loc 2 230 15
	blt	a5,zero,.L69
	.loc 2 240 12
	lw	a5,-68(s0)
	beq	a5,zero,.L70
	.loc 2 241 19
	lw	a4,-68(s0)
	lw	a5,-20(s0)
	add	a5,a4,a5
	.loc 2 241 25
	lw	a4,-44(s0)
	andi	a4,a4,0xff
	.loc 2 241 23
	sb	a4,0(a5)
.L70:
	.loc 2 217 55
	lw	a5,-20(s0)
	addi	a5,a5,1
	sw	a5,-20(s0)
.L63:
	.loc 2 217 23 discriminator 1
	lw	a5,-56(s0)
	lw	a4,12(a5)
	.loc 2 217 41 discriminator 1
	lw	a5,-56(s0)
	lw	a5,16(a5)
	.loc 2 217 33 discriminator 1
	add	a5,a4,a5
	.loc 2 217 5 discriminator 1
	lw	a4,-20(s0)
	bltu	a4,a5,.L71
	.loc 2 246 5
	j	.L72
.L80:
	.loc 2 248 15
	nop
.L73:
	.loc 2 248 122 discriminator 1
	lw	a5,-28(s0)
	.loc 2 248 150 discriminator 1
	addi	a5,a5,72
	.loc 2 248 18 discriminator 1
	lw	a5,0(a5)
	.loc 2 248 15 discriminator 1
	blt	a5,zero,.L73
	.loc 2 251 12
	lw	a5,-64(s0)
	beq	a5,zero,.L74
	.loc 2 252 165
	lw	a4,-64(s0)
	lw	a5,-20(s0)
	add	a5,a4,a5
	.loc 2 252 117
	lw	a4,-28(s0)
	.loc 2 252 145
	addi	a4,a4,72
	.loc 2 252 165
	lbu	a5,0(a5)
	.loc 2 252 157
	sb	a5,0(a4)
	j	.L75
.L74:
	.loc 2 254 117
	lw	a5,-28(s0)
	.loc 2 254 145
	addi	a5,a5,72
	.loc 2 254 157
	sb	zero,0(a5)
.L75:
	.loc 2 257 19
	call	metal_time
	mv	a2,a0
	mv	a3,a1
	.loc 2 257 17
	li	a0,1
	li	a1,0
	add	a4,a2,a0
	mv	a6,a4
	sltu	a6,a6,a2
	add	a5,a3,a1
	add	a3,a6,a5
	mv	a5,a3
	sw	a4,-40(s0)
	sw	a5,-36(s0)
	.loc 2 259 15
	j	.L76
.L78:
	.loc 2 261 17
	call	metal_time
	mv	a4,a0
	mv	a5,a1
	.loc 2 261 16
	lw	a3,-36(s0)
	mv	a2,a5
	blt	a3,a2,.L92
	lw	a3,-36(s0)
	mv	a2,a5
	bne	a3,a2,.L76
	lw	a3,-40(s0)
	mv	a5,a4
	bltu	a3,a5,.L92
	j	.L76
.L92:
	.loc 2 262 163
	lw	a5,-28(s0)
	addi	a5,a5,24
	lw	a5,0(a5)
	lw	a4,-28(s0)
	addi	a4,a4,24
	andi	a5,a5,-4
	sw	a5,0(a4)
	.loc 2 264 24
	li	a5,1
	j	.L53
.L76:
	.loc 2 259 132
	lw	a5,-28(s0)
	.loc 2 259 160
	addi	a5,a5,76
	.loc 2 259 24
	lw	a5,0(a5)
	sw	a5,-44(s0)
	.loc 2 259 16
	lw	a5,-44(s0)
	.loc 2 259 15
	blt	a5,zero,.L78
	.loc 2 267 12
	lw	a5,-68(s0)
	beq	a5,zero,.L79
	.loc 2 268 19
	lw	a4,-68(s0)
	lw	a5,-20(s0)
	add	a5,a4,a5
	.loc 2 268 25
	lw	a4,-44(s0)
	andi	a4,a4,0xff
	.loc 2 268 23
	sb	a4,0(a5)
.L79:
	.loc 2 246 75
	lw	a5,-20(s0)
	addi	a5,a5,1
	sw	a5,-20(s0)
.L72:
	.loc 2 246 23 discriminator 1
	lw	a5,-56(s0)
	lw	a4,12(a5)
	.loc 2 246 41 discriminator 1
	lw	a5,-56(s0)
	lw	a5,16(a5)
	.loc 2 246 33 discriminator 1
	add	a4,a4,a5
	.loc 2 246 60 discriminator 1
	lw	a5,-56(s0)
	lw	a5,20(a5)
	.loc 2 246 52 discriminator 1
	add	a5,a4,a5
	.loc 2 246 5 discriminator 1
	lw	a4,-20(s0)
	bltu	a4,a5,.L80
	.loc 2 273 5
	li	a2,1
	lw	a1,-56(s0)
	lw	a0,-24(s0)
	call	spi_mode_switch
	.loc 2 275 5
	j	.L81
.L89:
	.loc 2 279 15
	nop
.L82:
	.loc 2 279 122 discriminator 1
	lw	a5,-28(s0)
	.loc 2 279 150 discriminator 1
	addi	a5,a5,72
	.loc 2 279 18 discriminator 1
	lw	a5,0(a5)
	.loc 2 279 15 discriminator 1
	blt	a5,zero,.L82
	.loc 2 284 12
	lw	a5,-64(s0)
	beq	a5,zero,.L83
	.loc 2 285 165
	lw	a4,-64(s0)
	lw	a5,-20(s0)
	add	a5,a4,a5
	.loc 2 285 117
	lw	a4,-28(s0)
	.loc 2 285 145
	addi	a4,a4,72
	.loc 2 285 165
	lbu	a5,0(a5)
	.loc 2 285 157
	sb	a5,0(a4)
	j	.L84
.L83:
	.loc 2 288 117
	lw	a5,-28(s0)
	.loc 2 288 145
	addi	a5,a5,72
	.loc 2 288 157
	sb	zero,0(a5)
.L84:
	.loc 2 296 19
	call	metal_time
	mv	a2,a0
	mv	a3,a1
	.loc 2 296 17
	li	a0,1
	li	a1,0
	add	a4,a2,a0
	mv	a6,a4
	sltu	a6,a6,a2
	add	a5,a3,a1
	add	a3,a6,a5
	mv	a5,a3
	sw	a4,-40(s0)
	sw	a5,-36(s0)
	.loc 2 298 15
	j	.L85
.L87:
	.loc 2 300 17
	call	metal_time
	mv	a4,a0
	mv	a5,a1
	.loc 2 300 16
	lw	a3,-36(s0)
	mv	a2,a5
	blt	a3,a2,.L93
	lw	a3,-36(s0)
	mv	a2,a5
	bne	a3,a2,.L85
	lw	a3,-40(s0)
	mv	a5,a4
	bltu	a3,a5,.L93
	j	.L85
.L93:
	.loc 2 302 163
	lw	a5,-28(s0)
	addi	a5,a5,24
	lw	a5,0(a5)
	lw	a4,-28(s0)
	addi	a4,a4,24
	andi	a5,a5,-4
	sw	a5,0(a4)
	.loc 2 306 24
	li	a5,1
	j	.L53
.L85:
	.loc 2 298 132
	lw	a5,-28(s0)
	.loc 2 298 160
	addi	a5,a5,76
	.loc 2 298 24
	lw	a5,0(a5)
	sw	a5,-44(s0)
	.loc 2 298 16
	lw	a5,-44(s0)
	.loc 2 298 15
	blt	a5,zero,.L87
	.loc 2 311 12
	lw	a5,-68(s0)
	beq	a5,zero,.L88
	.loc 2 312 19
	lw	a4,-68(s0)
	lw	a5,-20(s0)
	add	a5,a4,a5
	.loc 2 312 25
	lw	a4,-44(s0)
	andi	a4,a4,0xff
	.loc 2 312 23
	sb	a4,0(a5)
.L88:
	.loc 2 275 22
	lw	a5,-20(s0)
	addi	a5,a5,1
	sw	a5,-20(s0)
.L81:
	.loc 2 275 5 discriminator 1
	lw	a4,-20(s0)
	lw	a5,-60(s0)
	bltu	a4,a5,.L89
	.loc 2 324 151
	lw	a5,-28(s0)
	addi	a5,a5,24
	lw	a5,0(a5)
	lw	a4,-28(s0)
	addi	a4,a4,24
	andi	a5,a5,-4
	sw	a5,0(a4)
	.loc 2 326 12
	li	a5,0
.L53:
	.loc 2 327 1
	mv	a0,a5
	lw	ra,76(sp)
	.cfi_restore 1
	lw	s0,72(sp)
	.cfi_restore 8
	.cfi_def_cfa 2, 80
	addi	sp,sp,80
	.cfi_def_cfa_offset 0
	jr	ra
	.cfi_endproc
.LFE243:
	.size	__metal_driver_sifive_spi0_transfer, .-__metal_driver_sifive_spi0_transfer
	.section	.text.__metal_driver_sifive_spi0_get_baud_rate,"ax",@progbits
	.align	1
	.globl	__metal_driver_sifive_spi0_get_baud_rate
	.type	__metal_driver_sifive_spi0_get_baud_rate, @function
__metal_driver_sifive_spi0_get_baud_rate:
.LFB244:
	.loc 2 329 70
	.cfi_startproc
	addi	sp,sp,-48
	.cfi_def_cfa_offset 48
	sw	s0,44(sp)
	.cfi_offset 8, -4
	addi	s0,sp,48
	.cfi_def_cfa 8, 0
	sw	a0,-36(s0)
	.loc 2 330 40
	lw	a5,-36(s0)
	sw	a5,-20(s0)
	.loc 2 331 15
	lw	a5,-20(s0)
	lw	a5,4(a5)
	.loc 2 332 1
	mv	a0,a5
	lw	s0,44(sp)
	.cfi_restore 8
	.cfi_def_cfa 2, 48
	addi	sp,sp,48
	.cfi_def_cfa_offset 0
	jr	ra
	.cfi_endproc
.LFE244:
	.size	__metal_driver_sifive_spi0_get_baud_rate, .-__metal_driver_sifive_spi0_get_baud_rate
	.section	.text.__metal_driver_sifive_spi0_set_baud_rate,"ax",@progbits
	.align	1
	.globl	__metal_driver_sifive_spi0_set_baud_rate
	.type	__metal_driver_sifive_spi0_set_baud_rate, @function
__metal_driver_sifive_spi0_set_baud_rate:
.LFB245:
	.loc 2 335 61
	.cfi_startproc
	addi	sp,sp,-64
	.cfi_def_cfa_offset 64
	sw	ra,60(sp)
	sw	s0,56(sp)
	.cfi_offset 1, -4
	.cfi_offset 8, -8
	addi	s0,sp,64
	.cfi_def_cfa 8, 0
	sw	a0,-52(s0)
	sw	a1,-56(s0)
	.loc 2 336 25
	lw	a0,-52(s0)
	call	__metal_driver_sifive_spi0_control_base
	mv	a5,a0
	.loc 2 336 10
	sw	a5,-20(s0)
	.loc 2 337 33
	lw	a0,-52(s0)
	call	__metal_driver_sifive_spi0_clock
	sw	a0,-24(s0)
	.loc 2 338 40
	lw	a5,-52(s0)
	sw	a5,-28(s0)
	.loc 2 340 20
	lw	a4,-56(s0)
	lw	a5,-28(s0)
	sw	a4,4(a5)
	.loc 2 342 8
	lw	a5,-24(s0)
	beq	a5,zero,.L97
.LBB2:
	.loc 2 343 32
	lw	a5,-24(s0)
	lw	a5,0(a5)
	.loc 2 343 40
	lw	a5,0(a5)
	.loc 2 343 27
	lw	a0,-24(s0)
	jalr	a5
.LVL0:
	sw	a0,-32(s0)
	.loc 2 346 37
	lw	a5,-56(s0)
	slli	a5,a5,1
	.loc 2 346 32
	lw	a4,-32(s0)
	div	a5,a4,a5
	.loc 2 346 14
	addi	a5,a5,-1
	sw	a5,-36(s0)
	.loc 2 348 12
	lw	a4,-36(s0)
	li	a5,4096
	blt	a4,a5,.L98
	.loc 2 351 20
	li	a5,-1
	j	.L99
.L98:
	.loc 2 355 153
	lw	a5,-20(s0)
	lw	a3,0(a5)
	lw	a5,-20(s0)
	li	a4,-4096
	and	a4,a3,a4
	sw	a4,0(a5)
	.loc 2 356 153
	lw	a5,-20(s0)
	lw	a3,0(a5)
	.loc 2 357 18
	lw	a4,-36(s0)
	li	a5,4096
	addi	a5,a5,-1
	and	a4,a4,a5
	.loc 2 356 153
	lw	a5,-20(s0)
	or	a4,a3,a4
	sw	a4,0(a5)
.L97:
.LBE2:
	.loc 2 360 12
	li	a5,0
.L99:
	.loc 2 361 1
	mv	a0,a5
	lw	ra,60(sp)
	.cfi_restore 1
	lw	s0,56(sp)
	.cfi_restore 8
	.cfi_def_cfa 2, 64
	addi	sp,sp,64
	.cfi_def_cfa_offset 0
	jr	ra
	.cfi_endproc
.LFE245:
	.size	__metal_driver_sifive_spi0_set_baud_rate, .-__metal_driver_sifive_spi0_set_baud_rate
	.section	.text.pre_rate_change_callback_func,"ax",@progbits
	.align	1
	.type	pre_rate_change_callback_func, @function
pre_rate_change_callback_func:
.LFB246:
	.loc 2 363 55
	.cfi_startproc
	addi	sp,sp,-48
	.cfi_def_cfa_offset 48
	sw	ra,44(sp)
	sw	s0,40(sp)
	.cfi_offset 1, -4
	.cfi_offset 8, -8
	addi	s0,sp,48
	.cfi_def_cfa 8, 0
	sw	a0,-36(s0)
	.loc 2 365 9
	lw	a0,-36(s0)
	call	__metal_driver_sifive_spi0_control_base
	mv	a5,a0
	.loc 2 364 10
	sw	a5,-20(s0)
	.loc 2 370 151
	lw	a5,-20(s0)
	addi	a5,a5,80
	lw	a5,0(a5)
	lw	a4,-20(s0)
	addi	a4,a4,80
	andi	a5,a5,-8
	sw	a5,0(a4)
	.loc 2 371 151
	lw	a5,-20(s0)
	addi	a5,a5,80
	lw	a5,0(a5)
	lw	a4,-20(s0)
	addi	a4,a4,80
	ori	a5,a5,1
	sw	a5,0(a4)
	.loc 2 373 11
	nop
.L101:
	.loc 2 373 120 discriminator 1
	lw	a5,-20(s0)
	.loc 2 373 148 discriminator 1
	addi	a5,a5,116
	.loc 2 373 15 discriminator 1
	lw	a5,0(a5)
	.loc 2 373 161 discriminator 1
	andi	a5,a5,1
	.loc 2 373 11 discriminator 1
	beq	a5,zero,.L101
	.loc 2 375 1
	nop
	nop
	lw	ra,44(sp)
	.cfi_restore 1
	lw	s0,40(sp)
	.cfi_restore 8
	.cfi_def_cfa 2, 48
	addi	sp,sp,48
	.cfi_def_cfa_offset 0
	jr	ra
	.cfi_endproc
.LFE246:
	.size	pre_rate_change_callback_func, .-pre_rate_change_callback_func
	.section	.text.post_rate_change_callback_func,"ax",@progbits
	.align	1
	.type	post_rate_change_callback_func, @function
post_rate_change_callback_func:
.LFB247:
	.loc 2 377 56
	.cfi_startproc
	addi	sp,sp,-48
	.cfi_def_cfa_offset 48
	sw	ra,44(sp)
	sw	s0,40(sp)
	.cfi_offset 1, -4
	.cfi_offset 8, -8
	addi	s0,sp,48
	.cfi_def_cfa 8, 0
	sw	a0,-36(s0)
	.loc 2 378 40
	lw	a5,-36(s0)
	sw	a5,-20(s0)
	.loc 2 379 5
	lw	a4,-20(s0)
	.loc 2 379 43
	lw	a5,-20(s0)
	lw	a5,4(a5)
	.loc 2 379 5
	mv	a1,a5
	mv	a0,a4
	call	metal_spi_set_baud_rate
	.loc 2 380 1
	nop
	lw	ra,44(sp)
	.cfi_restore 1
	lw	s0,40(sp)
	.cfi_restore 8
	.cfi_def_cfa 2, 48
	addi	sp,sp,48
	.cfi_def_cfa_offset 0
	jr	ra
	.cfi_endproc
.LFE247:
	.size	post_rate_change_callback_func, .-post_rate_change_callback_func
	.section	.text.__metal_driver_sifive_spi0_init,"ax",@progbits
	.align	1
	.globl	__metal_driver_sifive_spi0_init
	.type	__metal_driver_sifive_spi0_init, @function
__metal_driver_sifive_spi0_init:
.LFB248:
	.loc 2 382 77
	.cfi_startproc
	addi	sp,sp,-64
	.cfi_def_cfa_offset 64
	sw	ra,60(sp)
	sw	s0,56(sp)
	.cfi_offset 1, -4
	.cfi_offset 8, -8
	addi	s0,sp,64
	.cfi_def_cfa 8, 0
	sw	a0,-52(s0)
	sw	a1,-56(s0)
	.loc 2 383 40
	lw	a5,-52(s0)
	sw	a5,-20(s0)
	.loc 2 384 33
	lw	a0,-52(s0)
	call	__metal_driver_sifive_spi0_clock
	sw	a0,-24(s0)
	.loc 2 386 9
	lw	a0,-52(s0)
	call	__metal_driver_sifive_spi0_pinmux
	sw	a0,-28(s0)
	.loc 2 388 8
	lw	a5,-24(s0)
	beq	a5,zero,.L104
	.loc 2 389 48
	lw	a5,-20(s0)
	lui	a4,%hi(pre_rate_change_callback_func)
	addi	a4,a4,%lo(pre_rate_change_callback_func)
	sw	a4,8(a5)
	.loc 2 390 44
	lw	a5,-20(s0)
	lw	a4,-20(s0)
	sw	a4,12(a5)
	.loc 2 391 9
	lw	a5,-20(s0)
	addi	a5,a5,8
	mv	a1,a5
	lw	a0,-24(s0)
	call	metal_clock_register_pre_rate_change_callback
	.loc 2 394 49
	lw	a5,-20(s0)
	lui	a4,%hi(post_rate_change_callback_func)
	addi	a4,a4,%lo(post_rate_change_callback_func)
	sw	a4,20(a5)
	.loc 2 396 45
	lw	a5,-20(s0)
	lw	a4,-20(s0)
	sw	a4,24(a5)
	.loc 2 397 9
	lw	a5,-20(s0)
	addi	a5,a5,20
	mv	a1,a5
	lw	a0,-24(s0)
	call	metal_clock_register_post_rate_change_callback
.L104:
	.loc 2 401 5
	lw	a5,-20(s0)
	lw	a1,-56(s0)
	mv	a0,a5
	call	metal_spi_set_baud_rate
	.loc 2 403 8
	lw	a5,-28(s0)
	beq	a5,zero,.L106
.LBB3:
	.loc 2 405 13
	lw	a0,-52(s0)
	call	__metal_driver_sifive_spi0_pinmux_output_selector
	mv	a5,a0
	.loc 2 404 14
	sw	a5,-32(s0)
	.loc 2 407 13
	lw	a0,-52(s0)
	call	__metal_driver_sifive_spi0_pinmux_source_selector
	mv	a5,a0
	.loc 2 406 14
	sw	a5,-36(s0)
	.loc 2 408 21
	lw	a5,-28(s0)
	lw	a5,0(a5)
	.loc 2 408 28
	lw	a5,36(a5)
	.loc 2 408 9
	lw	a2,-36(s0)
	lw	a1,-32(s0)
	lw	a0,-28(s0)
	jalr	a5
.LVL1:
.L106:
.LBE3:
	.loc 2 412 1
	nop
	lw	ra,60(sp)
	.cfi_restore 1
	lw	s0,56(sp)
	.cfi_restore 8
	.cfi_def_cfa 2, 64
	addi	sp,sp,64
	.cfi_def_cfa_offset 0
	jr	ra
	.cfi_endproc
.LFE248:
	.size	__metal_driver_sifive_spi0_init, .-__metal_driver_sifive_spi0_init
	.globl	__metal_driver_vtable_sifive_spi0
	.section	.rodata.__metal_driver_vtable_sifive_spi0,"a"
	.align	2
	.type	__metal_driver_vtable_sifive_spi0, @object
	.size	__metal_driver_vtable_sifive_spi0, 16
__metal_driver_vtable_sifive_spi0:
	.word	__metal_driver_sifive_spi0_init
	.word	__metal_driver_sifive_spi0_transfer
	.word	__metal_driver_sifive_spi0_get_baud_rate
	.word	__metal_driver_sifive_spi0_set_baud_rate
	.text
.Letext0:
	.file 3 "/home/gra2p/Documents/uva_courses/rp1/src/freedom-metal/metal/clock.h"
	.file 4 "/home/gra2p/Documents/uva_courses/rp1/tools/riscv64-unknown-elf-toolchain-10.2.0-2020.12.8-x86_64-linux-ubuntu14/lib/gcc/riscv64-unknown-elf/10.2.0/include/stddef.h"
	.file 5 "/home/gra2p/Documents/uva_courses/rp1/src/freedom-metal/metal/interrupt.h"
	.file 6 "/home/gra2p/Documents/uva_courses/rp1/src/freedom-metal/metal/gpio.h"
	.file 7 "/home/gra2p/Documents/uva_courses/rp1/src/freedom-metal/metal/drivers/sifive_gpio0.h"
	.file 8 "/home/gra2p/Documents/uva_courses/rp1/src/freedom-metal/metal/io.h"
	.file 9 "/home/gra2p/Documents/uva_courses/rp1/src/freedom-metal/metal/spi.h"
	.file 10 "/home/gra2p/Documents/uva_courses/rp1/src/freedom-metal/metal/drivers/sifive_spi0.h"
	.file 11 "/home/gra2p/Documents/uva_courses/rp1/tools/riscv64-unknown-elf-toolchain-10.2.0-2020.12.8-x86_64-linux-ubuntu14/riscv64-unknown-elf/include/machine/_default_types.h"
	.file 12 "/home/gra2p/Documents/uva_courses/rp1/tools/riscv64-unknown-elf-toolchain-10.2.0-2020.12.8-x86_64-linux-ubuntu14/riscv64-unknown-elf/include/sys/_stdint.h"
	.file 13 "/home/gra2p/Documents/uva_courses/rp1/src/freedom-metal/metal/memory.h"
	.file 14 "/home/gra2p/Documents/uva_courses/rp1/src/freedom-metal/metal/cpu.h"
	.file 15 "/home/gra2p/Documents/uva_courses/rp1/src/freedom-metal/metal/drivers/riscv_cpu.h"
	.file 16 "/home/gra2p/Documents/uva_courses/rp1/src/freedom-metal/metal/led.h"
	.file 17 "/home/gra2p/Documents/uva_courses/rp1/src/freedom-metal/metal/drivers/sifive_gpio-leds.h"
	.file 18 "/home/gra2p/Documents/uva_courses/rp1/src/freedom-metal/metal/i2c.h"
	.file 19 "/home/gra2p/Documents/uva_courses/rp1/src/freedom-metal/metal/drivers/sifive_i2c0.h"
	.file 20 "/home/gra2p/Documents/uva_courses/rp1/src/freedom-metal/metal/pwm.h"
	.file 21 "/home/gra2p/Documents/uva_courses/rp1/src/freedom-metal/metal/drivers/sifive_pwm0.h"
	.file 22 "/home/gra2p/Documents/uva_courses/rp1/src/freedom-metal/metal/rtc.h"
	.file 23 "/home/gra2p/Documents/uva_courses/rp1/src/freedom-metal/metal/drivers/sifive_rtc0.h"
	.file 24 "/home/gra2p/Documents/uva_courses/rp1/src/freedom-metal/metal/uart.h"
	.file 25 "/home/gra2p/Documents/uva_courses/rp1/src/freedom-metal/metal/drivers/sifive_uart0.h"
	.file 26 "/home/gra2p/Documents/uva_courses/rp1/src/freedom-metal/metal/watchdog.h"
	.file 27 "/home/gra2p/Documents/uva_courses/rp1/src/freedom-metal/metal/drivers/sifive_wdog0.h"
	.file 28 "/home/gra2p/Documents/uva_courses/rp1/src/freedom-metal/metal/drivers/sifive_fe310-g000_pll.h"
	.file 29 "/home/gra2p/Documents/uva_courses/rp1/tools/riscv64-unknown-elf-toolchain-10.2.0-2020.12.8-x86_64-linux-ubuntu14/riscv64-unknown-elf/include/sys/_timeval.h"