	.file	"sifive_pwm0.c"
	.option nopic
	.attribute arch, "rv32i2p0_m2p0_a2p0_c2p0"
	.attribute unaligned_access, 0
	.attribute stack_align, 16
	.text
.Ltext0:
	.cfi_sections	.debug_frame
	.section	.text.__metal_driver_sifive_pwm0_control_base,"ax",@progbits
	.align	1
	.type	__metal_driver_sifive_pwm0_control_base, @function
__metal_driver_sifive_pwm0_control_base:
.LFB162:
	.file 1 "./metal/machine.h"
	.loc 1 719 1
	.cfi_startproc
	addi	sp,sp,-32
	.cfi_def_cfa_offset 32
	sw	s0,28(sp)
	.cfi_offset 8, -4
	addi	s0,sp,32
	.cfi_def_cfa 8, 0
	sw	a0,-20(s0)
	.loc 1 720 6
	lw	a4,-20(s0)
	.loc 1 720 24
	lui	a5,%hi(__metal_dt_pwm_10015000)
	addi	a5,a5,%lo(__metal_dt_pwm_10015000)
	.loc 1 720 5
	bne	a4,a5,.L2
	.loc 1 721 10
	li	a5,268521472
	j	.L3
.L2:
	.loc 1 723 11
	lw	a4,-20(s0)
	.loc 1 723 29
	lui	a5,%hi(__metal_dt_pwm_10025000)
	addi	a5,a5,%lo(__metal_dt_pwm_10025000)
	.loc 1 723 10
	bne	a4,a5,.L4
	.loc 1 724 10
	li	a5,268587008
	j	.L3
.L4:
	.loc 1 726 11
	lw	a4,-20(s0)
	.loc 1 726 29
	lui	a5,%hi(__metal_dt_pwm_10035000)
	addi	a5,a5,%lo(__metal_dt_pwm_10035000)
	.loc 1 726 10
	bne	a4,a5,.L5
	.loc 1 727 10
	li	a5,268652544
	j	.L3
.L5:
	.loc 1 730 10
	li	a5,0
.L3:
	.loc 1 732 1
	mv	a0,a5
	lw	s0,28(sp)
	.cfi_restore 8
	.cfi_def_cfa 2, 32
	addi	sp,sp,32
	.cfi_def_cfa_offset 0
	jr	ra
	.cfi_endproc
.LFE162:
	.size	__metal_driver_sifive_pwm0_control_base, .-__metal_driver_sifive_pwm0_control_base
	.section	.text.__metal_driver_sifive_pwm0_clock,"ax",@progbits
	.align	1
	.type	__metal_driver_sifive_pwm0_clock, @function
__metal_driver_sifive_pwm0_clock:
.LFB164:
	.loc 1 751 1
	.cfi_startproc
	addi	sp,sp,-32
	.cfi_def_cfa_offset 32
	sw	s0,28(sp)
	.cfi_offset 8, -4
	addi	s0,sp,32
	.cfi_def_cfa 8, 0
	sw	a0,-20(s0)
	.loc 1 752 6
	lw	a4,-20(s0)
	.loc 1 752 24
	lui	a5,%hi(__metal_dt_pwm_10015000)
	addi	a5,a5,%lo(__metal_dt_pwm_10015000)
	.loc 1 752 5
	bne	a4,a5,.L7
	.loc 1 753 10
	lui	a5,%hi(__metal_dt_clock_4)
	addi	a5,a5,%lo(__metal_dt_clock_4)
	j	.L8
.L7:
	.loc 1 755 11
	lw	a4,-20(s0)
	.loc 1 755 29
	lui	a5,%hi(__metal_dt_pwm_10025000)
	addi	a5,a5,%lo(__metal_dt_pwm_10025000)
	.loc 1 755 10
	bne	a4,a5,.L9
	.loc 1 756 10
	lui	a5,%hi(__metal_dt_clock_4)
	addi	a5,a5,%lo(__metal_dt_clock_4)
	j	.L8
.L9:
	.loc 1 758 11
	lw	a4,-20(s0)
	.loc 1 758 29
	lui	a5,%hi(__metal_dt_pwm_10035000)
	addi	a5,a5,%lo(__metal_dt_pwm_10035000)
	.loc 1 758 10
	bne	a4,a5,.L10
	.loc 1 759 10
	lui	a5,%hi(__metal_dt_clock_4)
	addi	a5,a5,%lo(__metal_dt_clock_4)
	j	.L8
.L10:
	.loc 1 762 9
	li	a5,0
.L8:
	.loc 1 764 1
	mv	a0,a5
	lw	s0,28(sp)
	.cfi_restore 8
	.cfi_def_cfa 2, 32
	addi	sp,sp,32
	.cfi_def_cfa_offset 0
	jr	ra
	.cfi_endproc
.LFE164:
	.size	__metal_driver_sifive_pwm0_clock, .-__metal_driver_sifive_pwm0_clock
	.section	.text.__metal_driver_sifive_pwm0_pinmux,"ax",@progbits
	.align	1
	.type	__metal_driver_sifive_pwm0_pinmux, @function
__metal_driver_sifive_pwm0_pinmux:
.LFB165:
	.loc 1 767 1
	.cfi_startproc
	addi	sp,sp,-32
	.cfi_def_cfa_offset 32
	sw	s0,28(sp)
	.cfi_offset 8, -4
	addi	s0,sp,32
	.cfi_def_cfa 8, 0
	sw	a0,-20(s0)
	.loc 1 768 6
	lw	a4,-20(s0)
	.loc 1 768 24
	lui	a5,%hi(__metal_dt_pwm_10015000)
	addi	a5,a5,%lo(__metal_dt_pwm_10015000)
	.loc 1 768 5
	bne	a4,a5,.L12
	.loc 1 769 10
	lui	a5,%hi(__metal_dt_gpio_10012000)
	addi	a5,a5,%lo(__metal_dt_gpio_10012000)
	j	.L13
.L12:
	.loc 1 771 11
	lw	a4,-20(s0)
	.loc 1 771 29
	lui	a5,%hi(__metal_dt_pwm_10025000)
	addi	a5,a5,%lo(__metal_dt_pwm_10025000)
	.loc 1 771 10
	bne	a4,a5,.L14
	.loc 1 772 10
	lui	a5,%hi(__metal_dt_gpio_10012000)
	addi	a5,a5,%lo(__metal_dt_gpio_10012000)
	j	.L13
.L14:
	.loc 1 774 11
	lw	a4,-20(s0)
	.loc 1 774 29
	lui	a5,%hi(__metal_dt_pwm_10035000)
	addi	a5,a5,%lo(__metal_dt_pwm_10035000)
	.loc 1 774 10
	bne	a4,a5,.L15
	.loc 1 775 10
	lui	a5,%hi(__metal_dt_gpio_10012000)
	addi	a5,a5,%lo(__metal_dt_gpio_10012000)
	j	.L13
.L15:
	.loc 1 778 9
	li	a5,0
.L13:
	.loc 1 780 1
	mv	a0,a5
	lw	s0,28(sp)
	.cfi_restore 8
	.cfi_def_cfa 2, 32
	addi	sp,sp,32
	.cfi_def_cfa_offset 0
	jr	ra
	.cfi_endproc
.LFE165:
	.size	__metal_driver_sifive_pwm0_pinmux, .-__metal_driver_sifive_pwm0_pinmux
	.section	.text.__metal_driver_sifive_pwm0_pinmux_output_selector,"ax",@progbits
	.align	1
	.type	__metal_driver_sifive_pwm0_pinmux_output_selector, @function
__metal_driver_sifive_pwm0_pinmux_output_selector:
.LFB166:
	.loc 1 783 1
	.cfi_startproc
	addi	sp,sp,-32
	.cfi_def_cfa_offset 32
	sw	s0,28(sp)
	.cfi_offset 8, -4
	addi	s0,sp,32
	.cfi_def_cfa 8, 0
	sw	a0,-20(s0)
	.loc 1 784 6
	lw	a4,-20(s0)
	.loc 1 784 24
	lui	a5,%hi(__metal_dt_pwm_10015000)
	addi	a5,a5,%lo(__metal_dt_pwm_10015000)
	.loc 1 784 5
	bne	a4,a5,.L17
	.loc 1 785 10
	li	a5,15
	j	.L18
.L17:
	.loc 1 787 11
	lw	a4,-20(s0)
	.loc 1 787 29
	lui	a5,%hi(__metal_dt_pwm_10025000)
	addi	a5,a5,%lo(__metal_dt_pwm_10025000)
	.loc 1 787 10
	bne	a4,a5,.L19
	.loc 1 788 10
	li	a5,7864320
	j	.L18
.L19:
	.loc 1 790 11
	lw	a4,-20(s0)
	.loc 1 790 29
	lui	a5,%hi(__metal_dt_pwm_10035000)
	addi	a5,a5,%lo(__metal_dt_pwm_10035000)
	.loc 1 790 10
	bne	a4,a5,.L20
	.loc 1 791 10
	li	a5,16384
	addi	a5,a5,-1024
	j	.L18
.L20:
	.loc 1 794 10
	li	a5,0
.L18:
	.loc 1 796 1
	mv	a0,a5
	lw	s0,28(sp)
	.cfi_restore 8
	.cfi_def_cfa 2, 32
	addi	sp,sp,32
	.cfi_def_cfa_offset 0
	jr	ra
	.cfi_endproc
.LFE166:
	.size	__metal_driver_sifive_pwm0_pinmux_output_selector, .-__metal_driver_sifive_pwm0_pinmux_output_selector
	.section	.text.__metal_driver_sifive_pwm0_pinmux_source_selector,"ax",@progbits
	.align	1
	.type	__metal_driver_sifive_pwm0_pinmux_source_selector, @function
__metal_driver_sifive_pwm0_pinmux_source_selector:
.LFB167:
	.loc 1 799 1
	.cfi_startproc
	addi	sp,sp,-32
	.cfi_def_cfa_offset 32
	sw	s0,28(sp)
	.cfi_offset 8, -4
	addi	s0,sp,32
	.cfi_def_cfa 8, 0
	sw	a0,-20(s0)
	.loc 1 800 6
	lw	a4,-20(s0)
	.loc 1 800 24
	lui	a5,%hi(__metal_dt_pwm_10015000)
	addi	a5,a5,%lo(__metal_dt_pwm_10015000)
	.loc 1 800 5
	bne	a4,a5,.L22
	.loc 1 801 10
	li	a5,15
	j	.L23
.L22:
	.loc 1 803 11
	lw	a4,-20(s0)
	.loc 1 803 29
	lui	a5,%hi(__metal_dt_pwm_10025000)
	addi	a5,a5,%lo(__metal_dt_pwm_10025000)
	.loc 1 803 10
	bne	a4,a5,.L24
	.loc 1 804 10
	li	a5,7864320
	j	.L23
.L24:
	.loc 1 806 11
	lw	a4,-20(s0)
	.loc 1 806 29
	lui	a5,%hi(__metal_dt_pwm_10035000)
	addi	a5,a5,%lo(__metal_dt_pwm_10035000)
	.loc 1 806 10
	bne	a4,a5,.L25
	.loc 1 807 10
	li	a5,16384
	addi	a5,a5,-1024
	j	.L23
.L25:
	.loc 1 810 10
	li	a5,0
.L23:
	.loc 1 812 1
	mv	a0,a5
	lw	s0,28(sp)
	.cfi_restore 8
	.cfi_def_cfa 2, 32
	addi	sp,sp,32
	.cfi_def_cfa_offset 0
	jr	ra
	.cfi_endproc
.LFE167:
	.size	__metal_driver_sifive_pwm0_pinmux_source_selector, .-__metal_driver_sifive_pwm0_pinmux_source_selector
	.section	.text.__metal_driver_sifive_pwm0_interrupt_parent,"ax",@progbits
	.align	1
	.type	__metal_driver_sifive_pwm0_interrupt_parent, @function
__metal_driver_sifive_pwm0_interrupt_parent:
.LFB169:
	.loc 1 831 1
	.cfi_startproc
	addi	sp,sp,-32
	.cfi_def_cfa_offset 32
	sw	s0,28(sp)
	.cfi_offset 8, -4
	addi	s0,sp,32
	.cfi_def_cfa 8, 0
	sw	a0,-20(s0)
	.loc 1 832 10
	lui	a5,%hi(__metal_dt_interrupt_controller_c000000)
	addi	a5,a5,%lo(__metal_dt_interrupt_controller_c000000)
	.loc 1 833 1
	mv	a0,a5
	lw	s0,28(sp)
	.cfi_restore 8
	.cfi_def_cfa 2, 32
	addi	sp,sp,32
	.cfi_def_cfa_offset 0
	jr	ra
	.cfi_endproc
.LFE169:
	.size	__metal_driver_sifive_pwm0_interrupt_parent, .-__metal_driver_sifive_pwm0_interrupt_parent
	.section	.text.__metal_driver_sifive_pwm0_interrupt_lines,"ax",@progbits
	.align	1
	.type	__metal_driver_sifive_pwm0_interrupt_lines, @function
__metal_driver_sifive_pwm0_interrupt_lines:
.LFB170:
	.loc 1 836 1
	.cfi_startproc
	addi	sp,sp,-32
	.cfi_def_cfa_offset 32
	sw	s0,28(sp)
	.cfi_offset 8, -4
	addi	s0,sp,32
	.cfi_def_cfa 8, 0
	sw	a0,-20(s0)
	sw	a1,-24(s0)
	.loc 1 837 7
	lw	a4,-20(s0)
	.loc 1 837 25
	lui	a5,%hi(__metal_dt_pwm_10015000)
	addi	a5,a5,%lo(__metal_dt_pwm_10015000)
	.loc 1 837 5
	bne	a4,a5,.L29
	.loc 1 837 62 discriminator 1
	lw	a5,-24(s0)
	bne	a5,zero,.L29
	.loc 1 838 10
	li	a5,40
	j	.L30
.L29:
	.loc 1 840 13
	lw	a4,-20(s0)
	.loc 1 840 31
	lui	a5,%hi(__metal_dt_pwm_10015000)
	addi	a5,a5,%lo(__metal_dt_pwm_10015000)
	.loc 1 840 10
	bne	a4,a5,.L31
	.loc 1 840 68 discriminator 1
	lw	a4,-24(s0)
	li	a5,1
	bne	a4,a5,.L31
	.loc 1 841 10
	li	a5,41
	j	.L30
.L31:
	.loc 1 843 13
	lw	a4,-20(s0)
	.loc 1 843 31
	lui	a5,%hi(__metal_dt_pwm_10015000)
	addi	a5,a5,%lo(__metal_dt_pwm_10015000)
	.loc 1 843 10
	bne	a4,a5,.L32
	.loc 1 843 68 discriminator 1
	lw	a4,-24(s0)
	li	a5,2
	bne	a4,a5,.L32
	.loc 1 844 10
	li	a5,42
	j	.L30
.L32:
	.loc 1 846 13
	lw	a4,-20(s0)
	.loc 1 846 31
	lui	a5,%hi(__metal_dt_pwm_10015000)
	addi	a5,a5,%lo(__metal_dt_pwm_10015000)
	.loc 1 846 10
	bne	a4,a5,.L33
	.loc 1 846 68 discriminator 1
	lw	a4,-24(s0)
	li	a5,3
	bne	a4,a5,.L33
	.loc 1 847 10
	li	a5,43
	j	.L30
.L33:
	.loc 1 849 13
	lw	a4,-20(s0)
	.loc 1 849 31
	lui	a5,%hi(__metal_dt_pwm_10025000)
	addi	a5,a5,%lo(__metal_dt_pwm_10025000)
	.loc 1 849 10
	bne	a4,a5,.L34
	.loc 1 849 68 discriminator 1
	lw	a5,-24(s0)
	bne	a5,zero,.L34
	.loc 1 850 10
	li	a5,44
	j	.L30
.L34:
	.loc 1 852 13
	lw	a4,-20(s0)
	.loc 1 852 31
	lui	a5,%hi(__metal_dt_pwm_10025000)
	addi	a5,a5,%lo(__metal_dt_pwm_10025000)
	.loc 1 852 10
	bne	a4,a5,.L35
	.loc 1 852 68 discriminator 1
	lw	a4,-24(s0)
	li	a5,1
	bne	a4,a5,.L35
	.loc 1 853 10
	li	a5,45
	j	.L30
.L35:
	.loc 1 855 13
	lw	a4,-20(s0)
	.loc 1 855 31
	lui	a5,%hi(__metal_dt_pwm_10025000)
	addi	a5,a5,%lo(__metal_dt_pwm_10025000)
	.loc 1 855 10
	bne	a4,a5,.L36
	.loc 1 855 68 discriminator 1
	lw	a4,-24(s0)
	li	a5,2
	bne	a4,a5,.L36
	.loc 1 856 10
	li	a5,46
	j	.L30
.L36:
	.loc 1 858 13
	lw	a4,-20(s0)
	.loc 1 858 31
	lui	a5,%hi(__metal_dt_pwm_10025000)
	addi	a5,a5,%lo(__metal_dt_pwm_10025000)
	.loc 1 858 10
	bne	a4,a5,.L37
	.loc 1 858 68 discriminator 1
	lw	a4,-24(s0)
	li	a5,3
	bne	a4,a5,.L37
	.loc 1 859 10
	li	a5,47
	j	.L30
.L37:
	.loc 1 861 13
	lw	a4,-20(s0)
	.loc 1 861 31
	lui	a5,%hi(__metal_dt_pwm_10035000)
	addi	a5,a5,%lo(__metal_dt_pwm_10035000)
	.loc 1 861 10
	bne	a4,a5,.L38
	.loc 1 861 68 discriminator 1
	lw	a5,-24(s0)
	bne	a5,zero,.L38
	.loc 1 862 10
	li	a5,48
	j	.L30
.L38:
	.loc 1 864 13
	lw	a4,-20(s0)
	.loc 1 864 31
	lui	a5,%hi(__metal_dt_pwm_10035000)
	addi	a5,a5,%lo(__metal_dt_pwm_10035000)
	.loc 1 864 10
	bne	a4,a5,.L39
	.loc 1 864 68 discriminator 1
	lw	a4,-24(s0)
	li	a5,1
	bne	a4,a5,.L39
	.loc 1 865 10
	li	a5,49
	j	.L30
.L39:
	.loc 1 867 13
	lw	a4,-20(s0)
	.loc 1 867 31
	lui	a5,%hi(__metal_dt_pwm_10035000)
	addi	a5,a5,%lo(__metal_dt_pwm_10035000)
	.loc 1 867 10
	bne	a4,a5,.L40
	.loc 1 867 68 discriminator 1
	lw	a4,-24(s0)
	li	a5,2
	bne	a4,a5,.L40
	.loc 1 868 10
	li	a5,50
	j	.L30
.L40:
	.loc 1 870 13
	lw	a4,-20(s0)
	.loc 1 870 31
	lui	a5,%hi(__metal_dt_pwm_10035000)
	addi	a5,a5,%lo(__metal_dt_pwm_10035000)
	.loc 1 870 10
	bne	a4,a5,.L41
	.loc 1 870 68 discriminator 1
	lw	a4,-24(s0)
	li	a5,3
	bne	a4,a5,.L41
	.loc 1 871 10
	li	a5,51
	j	.L30
.L41:
	.loc 1 874 10
	li	a5,0
.L30:
	.loc 1 876 1
	mv	a0,a5
	lw	s0,28(sp)
	.cfi_restore 8
	.cfi_def_cfa 2, 32
	addi	sp,sp,32
	.cfi_def_cfa_offset 0
	jr	ra
	.cfi_endproc
.LFE170:
	.size	__metal_driver_sifive_pwm0_interrupt_lines, .-__metal_driver_sifive_pwm0_interrupt_lines
	.section	.text.__metal_driver_sifive_pwm0_compare_width,"ax",@progbits
	.align	1
	.type	__metal_driver_sifive_pwm0_compare_width, @function
__metal_driver_sifive_pwm0_compare_width:
.LFB171:
	.loc 1 879 1
	.cfi_startproc
	addi	sp,sp,-32
	.cfi_def_cfa_offset 32
	sw	s0,28(sp)
	.cfi_offset 8, -4
	addi	s0,sp,32
	.cfi_def_cfa 8, 0
	sw	a0,-20(s0)
	.loc 1 880 6
	lw	a4,-20(s0)
	.loc 1 880 24
	lui	a5,%hi(__metal_dt_pwm_10015000)
	addi	a5,a5,%lo(__metal_dt_pwm_10015000)
	.loc 1 880 5
	bne	a4,a5,.L43
	.loc 1 881 10
	li	a5,8
	j	.L44
.L43:
	.loc 1 883 11
	lw	a4,-20(s0)
	.loc 1 883 29
	lui	a5,%hi(__metal_dt_pwm_10025000)
	addi	a5,a5,%lo(__metal_dt_pwm_10025000)
	.loc 1 883 10
	bne	a4,a5,.L45
	.loc 1 884 10
	li	a5,16
	j	.L44
.L45:
	.loc 1 886 11
	lw	a4,-20(s0)
	.loc 1 886 29
	lui	a5,%hi(__metal_dt_pwm_10035000)
	addi	a5,a5,%lo(__metal_dt_pwm_10035000)
	.loc 1 886 10
	bne	a4,a5,.L46
	.loc 1 887 10
	li	a5,16
	j	.L44
.L46:
	.loc 1 890 10
	li	a5,0
.L44:
	.loc 1 892 1
	mv	a0,a5
	lw	s0,28(sp)
	.cfi_restore 8
	.cfi_def_cfa 2, 32
	addi	sp,sp,32
	.cfi_def_cfa_offset 0
	jr	ra
	.cfi_endproc
.LFE171:
	.size	__metal_driver_sifive_pwm0_compare_width, .-__metal_driver_sifive_pwm0_compare_width
	.section	.text.__metal_driver_sifive_pwm0_comparator_count,"ax",@progbits
	.align	1
	.type	__metal_driver_sifive_pwm0_comparator_count, @function
__metal_driver_sifive_pwm0_comparator_count:
.LFB172:
	.loc 1 895 1
	.cfi_startproc
	addi	sp,sp,-32
	.cfi_def_cfa_offset 32
	sw	s0,28(sp)
	.cfi_offset 8, -4
	addi	s0,sp,32
	.cfi_def_cfa 8, 0
	sw	a0,-20(s0)
	.loc 1 896 6
	lw	a4,-20(s0)
	.loc 1 896 24
	lui	a5,%hi(__metal_dt_pwm_10015000)
	addi	a5,a5,%lo(__metal_dt_pwm_10015000)
	.loc 1 896 5
	bne	a4,a5,.L48
	.loc 1 897 10
	li	a5,4
	j	.L49
.L48:
	.loc 1 899 11
	lw	a4,-20(s0)
	.loc 1 899 29
	lui	a5,%hi(__metal_dt_pwm_10025000)
	addi	a5,a5,%lo(__metal_dt_pwm_10025000)
	.loc 1 899 10
	bne	a4,a5,.L50
	.loc 1 900 10
	li	a5,4
	j	.L49
.L50:
	.loc 1 902 11
	lw	a4,-20(s0)
	.loc 1 902 29
	lui	a5,%hi(__metal_dt_pwm_10035000)
	addi	a5,a5,%lo(__metal_dt_pwm_10035000)
	.loc 1 902 10
	bne	a4,a5,.L51
	.loc 1 903 10
	li	a5,4
	j	.L49
.L51:
	.loc 1 906 10
	li	a5,0
.L49:
	.loc 1 908 1
	mv	a0,a5
	lw	s0,28(sp)
	.cfi_restore 8
	.cfi_def_cfa 2, 32
	addi	sp,sp,32
	.cfi_def_cfa_offset 0
	jr	ra
	.cfi_endproc
.LFE172:
	.size	__metal_driver_sifive_pwm0_comparator_count, .-__metal_driver_sifive_pwm0_comparator_count
	.weak	__metal_memory_table
	.section	.data.__metal_memory_table,"aw"
	.align	2
	.type	__metal_memory_table, @object
	.size	__metal_memory_table, 12
__metal_memory_table:
	.word	__metal_dt_mem_dtim_80000000
	.word	__metal_dt_mem_itim_8000000
	.word	__metal_dt_mem_spi_10014000
	.weak	__metal_cpu_table
	.section	.sdata.__metal_cpu_table,"aw"
	.align	2
	.type	__metal_cpu_table, @object
	.size	__metal_cpu_table, 4
__metal_cpu_table:
	.word	__metal_dt_cpu_0
	.weak	__metal_gpio_table
	.section	.sdata.__metal_gpio_table,"aw"
	.align	2
	.type	__metal_gpio_table, @object
	.size	__metal_gpio_table, 4
__metal_gpio_table:
	.word	__metal_dt_gpio_10012000
	.weak	__metal_button_table
	.section	.sbss.__metal_button_table,"aw",@nobits
	.align	2
	.type	__metal_button_table, @object
	.size	__metal_button_table, 4
__metal_button_table:
	.zero	4
	.weak	__metal_led_table
	.section	.data.__metal_led_table,"aw"
	.align	2
	.type	__metal_led_table, @object
	.size	__metal_led_table, 12
__metal_led_table:
	.word	__metal_dt_led_0
	.word	__metal_dt_led_1
	.word	__metal_dt_led_2
	.weak	__metal_switch_table
	.section	.sbss.__metal_switch_table,"aw",@nobits
	.align	2
	.type	__metal_switch_table, @object
	.size	__metal_switch_table, 4
__metal_switch_table:
	.zero	4
	.weak	__metal_i2c_table
	.section	.sdata.__metal_i2c_table,"aw"
	.align	2
	.type	__metal_i2c_table, @object
	.size	__metal_i2c_table, 4
__metal_i2c_table:
	.word	__metal_dt_i2c_10016000
	.weak	__metal_pwm_table
	.section	.data.__metal_pwm_table,"aw"
	.align	2
	.type	__metal_pwm_table, @object
	.size	__metal_pwm_table, 12
__metal_pwm_table:
	.word	__metal_dt_pwm_10015000
	.word	__metal_dt_pwm_10025000
	.word	__metal_dt_pwm_10035000
	.weak	__metal_rtc_table
	.section	.sdata.__metal_rtc_table,"aw"
	.align	2
	.type	__metal_rtc_table, @object
	.size	__metal_rtc_table, 4
__metal_rtc_table:
	.word	__metal_dt_rtc_10000000
	.weak	__metal_spi_table
	.section	.data.__metal_spi_table,"aw"
	.align	2
	.type	__metal_spi_table, @object
	.size	__metal_spi_table, 12
__metal_spi_table:
	.word	__metal_dt_spi_10014000
	.word	__metal_dt_spi_10024000
	.word	__metal_dt_spi_10034000
	.weak	__metal_uart_table
	.section	.sdata.__metal_uart_table,"aw"
	.align	2
	.type	__metal_uart_table, @object
	.size	__metal_uart_table, 8
__metal_uart_table:
	.word	__metal_dt_serial_10013000
	.word	__metal_dt_serial_10023000
	.weak	__metal_simuart_table
	.section	.sbss.__metal_simuart_table,"aw",@nobits
	.align	2
	.type	__metal_simuart_table, @object
	.size	__metal_simuart_table, 4
__metal_simuart_table:
	.zero	4
	.weak	__metal_wdog_table
	.section	.sdata.__metal_wdog_table,"aw"
	.align	2
	.type	__metal_wdog_table, @object
	.size	__metal_wdog_table, 4
__metal_wdog_table:
	.word	__metal_dt_aon_10000000
	.section	.text.pre_rate_change_callback,"ax",@progbits
	.align	1
	.type	pre_rate_change_callback, @function
pre_rate_change_callback:
.LFB244:
	.file 2 "/home/gra2p/Documents/uva_courses/rp1/src/freedom-metal/src/drivers/sifive_pwm0.c"
	.loc 2 51 50
	.cfi_startproc
	addi	sp,sp,-48
	.cfi_def_cfa_offset 48
	sw	ra,44(sp)
	sw	s0,40(sp)
	.cfi_offset 1, -4
	.cfi_offset 8, -8
	addi	s0,sp,48
	.cfi_def_cfa 8, 0
	sw	a0,-36(s0)
	.loc 2 52 23
	lw	a5,-36(s0)
	sw	a5,-20(s0)
	.loc 2 54 9
	lw	a5,-20(s0)
	lw	a5,0(a5)
	.loc 2 54 17
	lw	a5,28(a5)
	.loc 2 54 5
	li	a1,0
	lw	a0,-20(s0)
	jalr	a5
.LVL0:
	.loc 2 55 1
	nop
	lw	ra,44(sp)
	.cfi_restore 1
	lw	s0,40(sp)
	.cfi_restore 8
	.cfi_def_cfa 2, 48
	addi	sp,sp,48
	.cfi_def_cfa_offset 0
	jr	ra
	.cfi_endproc
.LFE244:
	.size	pre_rate_change_callback, .-pre_rate_change_callback
	.section	.text.post_rate_change_callback,"ax",@progbits
	.align	1
	.type	post_rate_change_callback, @function
post_rate_change_callback:
.LFB245:
	.loc 2 57 51
	.cfi_startproc
	addi	sp,sp,-64
	.cfi_def_cfa_offset 64
	sw	ra,60(sp)
	sw	s0,56(sp)
	.cfi_offset 1, -4
	.cfi_offset 8, -8
	addi	s0,sp,64
	.cfi_def_cfa 8, 0
	sw	a0,-52(s0)
	.loc 2 58 40
	lw	a5,-52(s0)
	sw	a5,-24(s0)
	.loc 2 59 23
	lw	a5,-52(s0)
	sw	a5,-28(s0)
	.loc 2 60 26
	lw	a0,-28(s0)
	call	__metal_driver_sifive_pwm0_control_base
	sw	a0,-32(s0)
	.loc 2 61 30
	lw	a0,-28(s0)
	call	__metal_driver_sifive_pwm0_comparator_count
	mv	a5,a0
	.loc 2 61 18
	sw	a5,-36(s0)
	.loc 2 62 18
	sw	zero,-20(s0)
	.loc 2 66 12
	lw	a5,-24(s0)
	lw	a5,12(a5)
	.loc 2 66 8
	beq	a5,zero,.L57
	.loc 2 68 13
	lw	a5,-28(s0)
	lw	a5,0(a5)
	.loc 2 68 21
	lw	a4,8(a5)
	.loc 2 68 9
	lw	a5,-24(s0)
	lw	a5,12(a5)
	mv	a2,a5
	li	a1,0
	lw	a0,-28(s0)
	jalr	a4
.LVL1:
	.loc 2 71 15
	j	.L55
.L56:
	.loc 2 72 18
	lw	a4,-24(s0)
	lw	a5,-20(s0)
	addi	a5,a5,4
	slli	a5,a5,2
	add	a5,a4,a5
	lw	a5,0(a5)
	sw	a5,-40(s0)
	.loc 2 73 16
	lw	a5,-40(s0)
	beq	a5,zero,.L55
	.loc 2 75 32
	lw	a5,-24(s0)
	lw	a4,8(a5)
	.loc 2 75 27
	lw	a5,-40(s0)
	mul	a4,a4,a5
	.loc 2 74 127
	lw	a5,-20(s0)
	addi	a5,a5,8
	slli	a3,a5,2
	.loc 2 74 119
	lw	a5,-32(s0)
	add	a5,a3,a5
	.loc 2 74 20
	mv	a3,a5
	.loc 2 75 45
	li	a5,100
	divu	a5,a4,a5
	.loc 2 74 145
	sw	a5,0(a3)
.L55:
	.loc 2 71 15
	lw	a5,-20(s0)
	addi	a5,a5,1
	sw	a5,-20(s0)
	lw	a4,-20(s0)
	lw	a5,-36(s0)
	bltu	a4,a5,.L56
.L57:
	.loc 2 79 1
	nop
	lw	ra,60(sp)
	.cfi_restore 1
	lw	s0,56(sp)
	.cfi_restore 8
	.cfi_def_cfa 2, 64
	addi	sp,sp,64
	.cfi_def_cfa_offset 0
	jr	ra
	.cfi_endproc
.LFE245:
	.size	post_rate_change_callback, .-post_rate_change_callback
	.section	.text.__metal_driver_sifive_pwm0_enable,"ax",@progbits
	.align	1
	.type	__metal_driver_sifive_pwm0_enable, @function
__metal_driver_sifive_pwm0_enable:
.LFB246:
	.loc 2 81 70
	.cfi_startproc
	addi	sp,sp,-64
	.cfi_def_cfa_offset 64
	sw	ra,60(sp)
	sw	s0,56(sp)
	.cfi_offset 1, -4
	.cfi_offset 8, -8
	addi	s0,sp,64
	.cfi_def_cfa 8, 0
	sw	a0,-52(s0)
	.loc 2 83 9
	lw	a0,-52(s0)
	call	__metal_driver_sifive_pwm0_pinmux
	sw	a0,-24(s0)
	.loc 2 84 26
	lw	a0,-52(s0)
	call	__metal_driver_sifive_pwm0_control_base
	sw	a0,-28(s0)
	.loc 2 85 40
	lw	a5,-52(s0)
	sw	a5,-32(s0)
	.loc 2 86 9
	li	a5,-1
	sw	a5,-20(s0)
	.loc 2 88 8
	lw	a5,-28(s0)
	beq	a5,zero,.L59
	.loc 2 90 12
	lw	a5,-24(s0)
	beq	a5,zero,.L60
	.loc 2 90 29 discriminator 1
	lw	a5,-52(s0)
	beq	a5,zero,.L60
.LBB2:
	.loc 2 93 17
	lw	a0,-52(s0)
	call	__metal_driver_sifive_pwm0_pinmux_output_selector
	mv	a5,a0
	.loc 2 92 18
	sw	a5,-36(s0)
	.loc 2 95 17
	lw	a0,-52(s0)
	call	__metal_driver_sifive_pwm0_pinmux_source_selector
	mv	a5,a0
	.loc 2 94 18
	sw	a5,-40(s0)
	.loc 2 97 25
	lw	a5,-24(s0)
	lw	a5,0(a5)
	.loc 2 97 32
	lw	a5,36(a5)
	.loc 2 97 13
	lw	a2,-40(s0)
	lw	a1,-36(s0)
	lw	a0,-24(s0)
	jalr	a5
.LVL2:
.L60:
.LBE2:
	.loc 2 104 21
	lw	a0,-52(s0)
	call	__metal_driver_sifive_pwm0_compare_width
	mv	a4,a0
	.loc 2 104 18
	li	a5,1
	sll	a5,a5,a4
	.loc 2 104 69
	addi	a4,a5,-1
	.loc 2 103 24
	lw	a5,-32(s0)
	sw	a4,4(a5)
	.loc 2 105 19
	lw	a5,-32(s0)
	sw	zero,12(a5)
	.loc 2 106 24
	lw	a5,-32(s0)
	sw	zero,8(a5)
	.loc 2 107 12
	lw	a5,-28(s0)
	.loc 2 107 107
	sw	zero,0(a5)
	.loc 2 108 13
	sw	zero,-20(s0)
.L59:
	.loc 2 110 12
	lw	a5,-20(s0)
	.loc 2 111 1
	mv	a0,a5
	lw	ra,60(sp)
	.cfi_restore 1
	lw	s0,56(sp)
	.cfi_restore 8
	.cfi_def_cfa 2, 64
	addi	sp,sp,64
	.cfi_def_cfa_offset 0
	jr	ra
	.cfi_endproc
.LFE246:
	.size	__metal_driver_sifive_pwm0_enable, .-__metal_driver_sifive_pwm0_enable
	.section	.text.__metal_driver_sifive_pwm0_disable,"ax",@progbits
	.align	1
	.type	__metal_driver_sifive_pwm0_disable, @function
__metal_driver_sifive_pwm0_disable:
.LFB247:
	.loc 2 113 71
	.cfi_startproc
	addi	sp,sp,-48
	.cfi_def_cfa_offset 48
	sw	ra,44(sp)
	sw	s0,40(sp)
	.cfi_offset 1, -4
	.cfi_offset 8, -8
	addi	s0,sp,48
	.cfi_def_cfa 8, 0
	sw	a0,-36(s0)
	.loc 2 115 9
	lw	a0,-36(s0)
	call	__metal_driver_sifive_pwm0_pinmux
	sw	a0,-24(s0)
	.loc 2 116 9
	li	a5,-1
	sw	a5,-20(s0)
	.loc 2 118 8
	lw	a5,-36(s0)
	beq	a5,zero,.L63
	.loc 2 120 12
	lw	a5,-24(s0)
	beq	a5,zero,.L64
.LBB3:
	.loc 2 123 17
	lw	a0,-36(s0)
	call	__metal_driver_sifive_pwm0_pinmux_source_selector
	mv	a5,a0
	.loc 2 122 18
	sw	a5,-28(s0)
	.loc 2 124 25
	lw	a5,-24(s0)
	lw	a5,0(a5)
	.loc 2 124 32
	lw	a5,40(a5)
	.loc 2 124 13
	lw	a1,-28(s0)
	lw	a0,-24(s0)
	jalr	a5
.LVL3:
.L64:
.LBE3:
	.loc 2 128 13
	sw	zero,-20(s0)
.L63:
	.loc 2 130 12
	lw	a5,-20(s0)
	.loc 2 131 1
	mv	a0,a5
	lw	ra,44(sp)
	.cfi_restore 1
	lw	s0,40(sp)
	.cfi_restore 8
	.cfi_def_cfa 2, 48
	addi	sp,sp,48
	.cfi_def_cfa_offset 0
	jr	ra
	.cfi_endproc
.LFE247:
	.size	__metal_driver_sifive_pwm0_disable, .-__metal_driver_sifive_pwm0_disable
	.section	.text.__metal_driver_sifive_pwm0_set_freq,"ax",@progbits
	.align	1
	.type	__metal_driver_sifive_pwm0_set_freq, @function
__metal_driver_sifive_pwm0_set_freq:
.LFB248:
	.loc 2 135 67
	.cfi_startproc
	addi	sp,sp,-64
	.cfi_def_cfa_offset 64
	sw	ra,60(sp)
	sw	s0,56(sp)
	.cfi_offset 1, -4
	.cfi_offset 8, -8
	addi	s0,sp,64
	.cfi_def_cfa 8, 0
	sw	a0,-52(s0)
	sw	a1,-56(s0)
	sw	a2,-60(s0)
	.loc 2 136 33
	lw	a0,-52(s0)
	call	__metal_driver_sifive_pwm0_clock
	sw	a0,-28(s0)
	.loc 2 137 26
	lw	a0,-52(s0)
	call	__metal_driver_sifive_pwm0_control_base
	sw	a0,-32(s0)
	.loc 2 138 30
	lw	a0,-52(s0)
	call	__metal_driver_sifive_pwm0_comparator_count
	mv	a5,a0
	.loc 2 138 18
	sw	a5,-36(s0)
	.loc 2 139 40
	lw	a5,-52(s0)
	sw	a5,-40(s0)
	.loc 2 142 18
	sw	zero,-20(s0)
	.loc 2 143 9
	li	a5,-1
	sw	a5,-24(s0)
	.loc 2 145 8
	lw	a5,-28(s0)
	beq	a5,zero,.L67
	.loc 2 145 24 discriminator 1
	lw	a5,-52(s0)
	beq	a5,zero,.L67
	.loc 2 145 42 discriminator 2
	lw	a4,-56(s0)
	lw	a5,-36(s0)
	bgeu	a4,a5,.L67
	.loc 2 146 27
	lw	a5,-28(s0)
	lw	a5,0(a5)
	.loc 2 146 35
	lw	a5,0(a5)
	.loc 2 146 22
	lw	a0,-28(s0)
	jalr	a5
.LVL4:
	mv	a5,a0
	.loc 2 146 20
	sw	a5,-44(s0)
	.loc 2 148 16
	lw	a5,-40(s0)
	lw	a5,12(a5)
	.loc 2 148 12
	bne	a5,zero,.L70
	.loc 2 149 52
	lw	a5,-40(s0)
	lui	a4,%hi(pre_rate_change_callback)
	addi	a4,a4,%lo(pre_rate_change_callback)
	sw	a4,80(a5)
	.loc 2 150 48
	lw	a5,-40(s0)
	lw	a4,-40(s0)
	sw	a4,84(a5)
	.loc 2 151 13
	lw	a5,-40(s0)
	addi	a5,a5,80
	mv	a1,a5
	lw	a0,-28(s0)
	call	metal_clock_register_pre_rate_change_callback
	.loc 2 154 53
	lw	a5,-40(s0)
	lui	a4,%hi(post_rate_change_callback)
	addi	a4,a4,%lo(post_rate_change_callback)
	sw	a4,92(a5)
	.loc 2 156 49
	lw	a5,-40(s0)
	lw	a4,-40(s0)
	sw	a4,96(a5)
	.loc 2 157 13
	lw	a5,-40(s0)
	addi	a5,a5,92
	mv	a1,a5
	lw	a0,-28(s0)
	call	metal_clock_register_post_rate_change_callback
.L70:
	.loc 2 163 33
	lw	a5,-20(s0)
	lw	a4,-44(s0)
	srl	a4,a4,a5
	.loc 2 163 19
	lw	a5,-60(s0)
	divu	a5,a4,a5
	sw	a5,-48(s0)
	.loc 2 164 30
	lw	a5,-40(s0)
	lw	a5,4(a5)
	.loc 2 165 18
	lw	a4,-48(s0)
	bleu	a4,a5,.L69
	.loc 2 165 27 discriminator 1
	lw	a5,-20(s0)
	addi	a4,a5,1
	sw	a4,-20(s0)
	.loc 2 164 43 discriminator 1
	li	a4,14
	bleu	a5,a4,.L70
.L69:
	.loc 2 167 33
	lw	a5,-20(s0)
	lw	a4,-44(s0)
	srl	a4,a4,a5
	.loc 2 167 54
	lw	a5,-48(s0)
	divu	a4,a4,a5
	.loc 2 167 19
	lw	a5,-40(s0)
	sw	a4,12(a5)
	.loc 2 168 24
	lw	a5,-48(s0)
	addi	a5,a5,-1
	sw	a5,-48(s0)
	lw	a5,-40(s0)
	lw	a4,-48(s0)
	sw	a4,8(a5)
	.loc 2 171 97
	lw	a5,-32(s0)
	addi	a5,a5,32
	.loc 2 171 12
	mv	a4,a5
	.loc 2 171 109
	lw	a5,-48(s0)
	sw	a5,0(a4)
	.loc 2 172 107
	lw	a5,-32(s0)
	lw	a3,0(a5)
	.loc 2 172 120
	lw	a5,-20(s0)
	andi	a4,a5,15
	.loc 2 172 107
	lw	a5,-32(s0)
	or	a4,a3,a4
	sw	a4,0(a5)
	.loc 2 173 13
	sw	zero,-24(s0)
.L67:
	.loc 2 181 12
	lw	a5,-24(s0)
	.loc 2 182 1
	mv	a0,a5
	lw	ra,60(sp)
	.cfi_restore 1
	lw	s0,56(sp)
	.cfi_restore 8
	.cfi_def_cfa 2, 64
	addi	sp,sp,64
	.cfi_def_cfa_offset 0
	jr	ra
	.cfi_endproc
.LFE248:
	.size	__metal_driver_sifive_pwm0_set_freq, .-__metal_driver_sifive_pwm0_set_freq
	.section	.text.__metal_driver_sifive_pwm0_set_duty,"ax",@progbits
	.align	1
	.type	__metal_driver_sifive_pwm0_set_duty, @function
__metal_driver_sifive_pwm0_set_duty:
.LFB249:
	.loc 2 187 75
	.cfi_startproc
	addi	sp,sp,-48
	.cfi_def_cfa_offset 48
	sw	ra,44(sp)
	sw	s0,40(sp)
	.cfi_offset 1, -4
	.cfi_offset 8, -8
	addi	s0,sp,48
	.cfi_def_cfa 8, 0
	sw	a0,-36(s0)
	sw	a1,-40(s0)
	sw	a2,-44(s0)
	sw	a3,-48(s0)
	.loc 2 188 40
	lw	a5,-36(s0)
	sw	a5,-24(s0)
	.loc 2 189 26
	lw	a0,-36(s0)
	call	__metal_driver_sifive_pwm0_control_base
	sw	a0,-28(s0)
	.loc 2 190 30
	lw	a0,-36(s0)
	call	__metal_driver_sifive_pwm0_comparator_count
	mv	a5,a0
	.loc 2 190 18
	sw	a5,-32(s0)
	.loc 2 191 9
	li	a5,-1
	sw	a5,-20(s0)
	.loc 2 195 8
	lw	a5,-40(s0)
	beq	a5,zero,.L73
	.loc 2 195 19 discriminator 1
	lw	a4,-40(s0)
	lw	a5,-32(s0)
	bgeu	a4,a5,.L73
	.loc 2 195 40 discriminator 2
	lw	a4,-44(s0)
	li	a5,100
	bgtu	a4,a5,.L73
	.loc 2 198 24
	lw	a5,-24(s0)
	lw	a4,8(a5)
	.loc 2 198 19
	lw	a5,-44(s0)
	mul	a4,a4,a5
	.loc 2 197 119
	lw	a5,-40(s0)
	addi	a5,a5,8
	slli	a3,a5,2
	.loc 2 197 111
	lw	a5,-28(s0)
	add	a5,a3,a5
	.loc 2 197 12
	mv	a3,a5
	.loc 2 198 37
	li	a5,100
	divu	a5,a4,a5
	.loc 2 197 137
	sw	a5,0(a3)
	.loc 2 199 24
	lw	a4,-24(s0)
	lw	a5,-40(s0)
	addi	a5,a5,4
	slli	a5,a5,2
	add	a5,a4,a5
	lw	a4,-44(s0)
	sw	a4,0(a5)
	.loc 2 202 12
	lw	a4,-48(s0)
	li	a5,1
	bne	a4,a5,.L74
	.loc 2 203 111
	lw	a5,-28(s0)
	lw	a3,0(a5)
	.loc 2 204 29
	lw	a5,-40(s0)
	addi	a5,a5,16
	.loc 2 204 22
	li	a4,1
	sll	a4,a4,a5
	.loc 2 203 111
	lw	a5,-28(s0)
	or	a4,a3,a4
	sw	a4,0(a5)
	j	.L75
.L74:
	.loc 2 206 111
	lw	a5,-28(s0)
	lw	a3,0(a5)
	.loc 2 207 30
	lw	a5,-40(s0)
	addi	a5,a5,16
	.loc 2 207 23
	li	a4,1
	sll	a5,a4,a5
	.loc 2 207 17
	not	a4,a5
	.loc 2 206 111
	lw	a5,-28(s0)
	and	a4,a3,a4
	sw	a4,0(a5)
.L75:
	.loc 2 209 13
	sw	zero,-20(s0)
.L73:
	.loc 2 211 12
	lw	a5,-20(s0)
	.loc 2 212 1
	mv	a0,a5
	lw	ra,44(sp)
	.cfi_restore 1
	lw	s0,40(sp)
	.cfi_restore 8
	.cfi_def_cfa 2, 48
	addi	sp,sp,48
	.cfi_def_cfa_offset 0
	jr	ra
	.cfi_endproc
.LFE249:
	.size	__metal_driver_sifive_pwm0_set_duty, .-__metal_driver_sifive_pwm0_set_duty
	.section	.text.__metal_driver_sifive_pwm0_get_duty,"ax",@progbits
	.align	1
	.type	__metal_driver_sifive_pwm0_get_duty, @function
__metal_driver_sifive_pwm0_get_duty:
.LFB250:
	.loc 2 215 75
	.cfi_startproc
	addi	sp,sp,-48
	.cfi_def_cfa_offset 48
	sw	ra,44(sp)
	sw	s0,40(sp)
	.cfi_offset 1, -4
	.cfi_offset 8, -8
	addi	s0,sp,48
	.cfi_def_cfa 8, 0
	sw	a0,-36(s0)
	sw	a1,-40(s0)
	.loc 2 216 40
	lw	a5,-36(s0)
	sw	a5,-24(s0)
	.loc 2 217 30
	lw	a0,-36(s0)
	call	__metal_driver_sifive_pwm0_comparator_count
	mv	a5,a0
	.loc 2 217 18
	sw	a5,-28(s0)
	.loc 2 218 18
	sw	zero,-20(s0)
	.loc 2 221 8
	lw	a5,-24(s0)
	beq	a5,zero,.L78
	.loc 2 221 22 discriminator 1
	lw	a5,-40(s0)
	beq	a5,zero,.L78
	.loc 2 221 35 discriminator 2
	lw	a4,-40(s0)
	lw	a5,-28(s0)
	bgeu	a4,a5,.L78
	.loc 2 222 14
	lw	a4,-24(s0)
	lw	a5,-40(s0)
	addi	a5,a5,4
	slli	a5,a5,2
	add	a5,a4,a5
	lw	a5,0(a5)
	sw	a5,-20(s0)
.L78:
	.loc 2 224 12
	lw	a5,-20(s0)
	.loc 2 225 1
	mv	a0,a5
	lw	ra,44(sp)
	.cfi_restore 1
	lw	s0,40(sp)
	.cfi_restore 8
	.cfi_def_cfa 2, 48
	addi	sp,sp,48
	.cfi_def_cfa_offset 0
	jr	ra
	.cfi_endproc
.LFE250:
	.size	__metal_driver_sifive_pwm0_get_duty, .-__metal_driver_sifive_pwm0_get_duty
	.section	.text.__metal_driver_sifive_pwm0_get_freq,"ax",@progbits
	.align	1
	.type	__metal_driver_sifive_pwm0_get_freq, @function
__metal_driver_sifive_pwm0_get_freq:
.LFB251:
	.loc 2 228 75
	.cfi_startproc
	addi	sp,sp,-48
	.cfi_def_cfa_offset 48
	sw	s0,44(sp)
	.cfi_offset 8, -4
	addi	s0,sp,48
	.cfi_def_cfa 8, 0
	sw	a0,-36(s0)
	sw	a1,-40(s0)
	.loc 2 229 40
	lw	a5,-36(s0)
	sw	a5,-24(s0)
	.loc 2 230 18
	sw	zero,-20(s0)
	.loc 2 235 8
	lw	a5,-24(s0)
	beq	a5,zero,.L81
	.loc 2 236 14
	lw	a5,-24(s0)
	lw	a5,12(a5)
	sw	a5,-20(s0)
.L81:
	.loc 2 238 12
	lw	a5,-20(s0)
	.loc 2 239 1
	mv	a0,a5
	lw	s0,44(sp)
	.cfi_restore 8
	.cfi_def_cfa 2, 48
	addi	sp,sp,48
	.cfi_def_cfa_offset 0
	jr	ra
	.cfi_endproc
.LFE251:
	.size	__metal_driver_sifive_pwm0_get_freq, .-__metal_driver_sifive_pwm0_get_freq
	.section	.text.__metal_driver_sifive_pwm0_trigger,"ax",@progbits
	.align	1
	.type	__metal_driver_sifive_pwm0_trigger, @function
__metal_driver_sifive_pwm0_trigger:
.LFB252:
	.loc 2 243 74
	.cfi_startproc
	addi	sp,sp,-48
	.cfi_def_cfa_offset 48
	sw	ra,44(sp)
	sw	s0,40(sp)
	.cfi_offset 1, -4
	.cfi_offset 8, -8
	addi	s0,sp,48
	.cfi_def_cfa 8, 0
	sw	a0,-36(s0)
	sw	a1,-40(s0)
	sw	a2,-44(s0)
	.loc 2 244 26
	lw	a0,-36(s0)
	call	__metal_driver_sifive_pwm0_control_base
	sw	a0,-24(s0)
	.loc 2 245 9
	li	a5,-1
	sw	a5,-20(s0)
	.loc 2 249 8
	lw	a5,-24(s0)
	beq	a5,zero,.L84
	.loc 2 251 12
	lw	a5,-44(s0)
	bne	a5,zero,.L85
	.loc 2 252 111
	lw	a5,-24(s0)
	lw	a3,0(a5)
	lw	a5,-24(s0)
	li	a4,4096
	addi	a4,a4,1536
	or	a4,a3,a4
	sw	a4,0(a5)
	j	.L86
.L85:
	.loc 2 256 111
	lw	a5,-24(s0)
	lw	a3,0(a5)
	lw	a5,-24(s0)
	li	a4,8192
	addi	a4,a4,1536
	or	a4,a3,a4
	sw	a4,0(a5)
.L86:
	.loc 2 260 13
	sw	zero,-20(s0)
.L84:
	.loc 2 262 12
	lw	a5,-20(s0)
	.loc 2 263 1
	mv	a0,a5
	lw	ra,44(sp)
	.cfi_restore 1
	lw	s0,40(sp)
	.cfi_restore 8
	.cfi_def_cfa 2, 48
	addi	sp,sp,48
	.cfi_def_cfa_offset 0
	jr	ra
	.cfi_endproc
.LFE252:
	.size	__metal_driver_sifive_pwm0_trigger, .-__metal_driver_sifive_pwm0_trigger
	.section	.text.__metal_driver_sifive_pwm0_stop,"ax",@progbits
	.align	1
	.type	__metal_driver_sifive_pwm0_stop, @function
__metal_driver_sifive_pwm0_stop:
.LFB253:
	.loc 2 266 62
	.cfi_startproc
	addi	sp,sp,-48
	.cfi_def_cfa_offset 48
	sw	ra,44(sp)
	sw	s0,40(sp)
	.cfi_offset 1, -4
	.cfi_offset 8, -8
	addi	s0,sp,48
	.cfi_def_cfa 8, 0
	sw	a0,-36(s0)
	sw	a1,-40(s0)
	.loc 2 267 26
	lw	a0,-36(s0)
	call	__metal_driver_sifive_pwm0_control_base
	sw	a0,-24(s0)
	.loc 2 268 9
	li	a5,-1
	sw	a5,-20(s0)
	.loc 2 272 8
	lw	a5,-24(s0)
	beq	a5,zero,.L89
	.loc 2 274 107
	lw	a5,-24(s0)
	lw	a3,0(a5)
	lw	a5,-24(s0)
	li	a4,-4096
	addi	a4,a4,-1
	and	a4,a3,a4
	sw	a4,0(a5)
	.loc 2 275 13
	sw	zero,-20(s0)
.L89:
	.loc 2 277 12
	lw	a5,-20(s0)
	.loc 2 278 1
	mv	a0,a5
	lw	ra,44(sp)
	.cfi_restore 1
	lw	s0,40(sp)
	.cfi_restore 8
	.cfi_def_cfa 2, 48
	addi	sp,sp,48
	.cfi_def_cfa_offset 0
	jr	ra
	.cfi_endproc
.LFE253:
	.size	__metal_driver_sifive_pwm0_stop, .-__metal_driver_sifive_pwm0_stop
	.section	.text.__metal_driver_sifive_pwm0_cfg_interrupt,"ax",@progbits
	.align	1
	.type	__metal_driver_sifive_pwm0_cfg_interrupt, @function
__metal_driver_sifive_pwm0_cfg_interrupt:
.LFB254:
	.loc 2 282 70
	.cfi_startproc
	addi	sp,sp,-48
	.cfi_def_cfa_offset 48
	sw	ra,44(sp)
	sw	s0,40(sp)
	.cfi_offset 1, -4
	.cfi_offset 8, -8
	addi	s0,sp,48
	.cfi_def_cfa 8, 0
	sw	a0,-36(s0)
	sw	a1,-40(s0)
	.loc 2 283 26
	lw	a0,-36(s0)
	call	__metal_driver_sifive_pwm0_control_base
	sw	a0,-24(s0)
	.loc 2 284 9
	li	a5,-1
	sw	a5,-20(s0)
	.loc 2 286 8
	lw	a5,-24(s0)
	beq	a5,zero,.L92
	.loc 2 287 12
	lw	a4,-40(s0)
	li	a5,1
	bne	a4,a5,.L93
	.loc 2 289 111
	lw	a5,-24(s0)
	lw	a4,0(a5)
	lw	a5,-24(s0)
	ori	a4,a4,256
	sw	a4,0(a5)
	j	.L94
.L93:
	.loc 2 291 111
	lw	a5,-24(s0)
	lw	a4,0(a5)
	lw	a5,-24(s0)
	andi	a4,a4,-257
	sw	a4,0(a5)
.L94:
	.loc 2 293 13
	sw	zero,-20(s0)
.L92:
	.loc 2 295 12
	lw	a5,-20(s0)
	.loc 2 296 1
	mv	a0,a5
	lw	ra,44(sp)
	.cfi_restore 1
	lw	s0,40(sp)
	.cfi_restore 8
	.cfi_def_cfa 2, 48
	addi	sp,sp,48
	.cfi_def_cfa_offset 0
	jr	ra
	.cfi_endproc
.LFE254:
	.size	__metal_driver_sifive_pwm0_cfg_interrupt, .-__metal_driver_sifive_pwm0_cfg_interrupt
	.section	.text.__metal_driver_sifive_pwm0_clr_interrupt,"ax",@progbits
	.align	1
	.type	__metal_driver_sifive_pwm0_clr_interrupt, @function
__metal_driver_sifive_pwm0_clr_interrupt:
.LFB255:
	.loc 2 299 71
	.cfi_startproc
	addi	sp,sp,-48
	.cfi_def_cfa_offset 48
	sw	ra,44(sp)
	sw	s0,40(sp)
	.cfi_offset 1, -4
	.cfi_offset 8, -8
	addi	s0,sp,48
	.cfi_def_cfa 8, 0
	sw	a0,-36(s0)
	sw	a1,-40(s0)
	.loc 2 300 26
	lw	a0,-36(s0)
	call	__metal_driver_sifive_pwm0_control_base
	sw	a0,-24(s0)
	.loc 2 301 30
	lw	a0,-36(s0)
	call	__metal_driver_sifive_pwm0_comparator_count
	mv	a5,a0
	.loc 2 301 18
	sw	a5,-28(s0)
	.loc 2 302 9
	li	a5,-1
	sw	a5,-20(s0)
	.loc 2 304 8
	lw	a5,-24(s0)
	beq	a5,zero,.L97
	.loc 2 304 21 discriminator 1
	lw	a4,-40(s0)
	lw	a5,-28(s0)
	bgeu	a4,a5,.L97
	.loc 2 306 107
	lw	a5,-24(s0)
	lw	a3,0(a5)
	.loc 2 306 123
	lw	a5,-40(s0)
	addi	a5,a5,28
	.loc 2 306 116
	li	a4,1
	sll	a5,a4,a5
	.loc 2 306 110
	not	a4,a5
	.loc 2 306 107
	lw	a5,-24(s0)
	and	a4,a3,a4
	sw	a4,0(a5)
	.loc 2 307 13
	sw	zero,-20(s0)
.L97:
	.loc 2 309 12
	lw	a5,-20(s0)
	.loc 2 310 1
	mv	a0,a5
	lw	ra,44(sp)
	.cfi_restore 1
	lw	s0,40(sp)
	.cfi_restore 8
	.cfi_def_cfa 2, 48
	addi	sp,sp,48
	.cfi_def_cfa_offset 0
	jr	ra
	.cfi_endproc
.LFE255:
	.size	__metal_driver_sifive_pwm0_clr_interrupt, .-__metal_driver_sifive_pwm0_clr_interrupt
	.section	.text.__metal_driver_sifive_pwm0_interrupt_controller,"ax",@progbits
	.align	1
	.type	__metal_driver_sifive_pwm0_interrupt_controller, @function
__metal_driver_sifive_pwm0_interrupt_controller:
.LFB256:
	.loc 2 313 73
	.cfi_startproc
	addi	sp,sp,-32
	.cfi_def_cfa_offset 32
	sw	ra,28(sp)
	sw	s0,24(sp)
	.cfi_offset 1, -4
	.cfi_offset 8, -8
	addi	s0,sp,32
	.cfi_def_cfa 8, 0
	sw	a0,-20(s0)
	.loc 2 314 12
	lw	a0,-20(s0)
	call	__metal_driver_sifive_pwm0_interrupt_parent
	mv	a5,a0
	.loc 2 315 1
	mv	a0,a5
	lw	ra,28(sp)
	.cfi_restore 1
	lw	s0,24(sp)
	.cfi_restore 8
	.cfi_def_cfa 2, 32
	addi	sp,sp,32
	.cfi_def_cfa_offset 0
	jr	ra
	.cfi_endproc
.LFE256:
	.size	__metal_driver_sifive_pwm0_interrupt_controller, .-__metal_driver_sifive_pwm0_interrupt_controller
	.section	.text.__metal_driver_sifive_pwm0_interrupt_id,"ax",@progbits
	.align	1
	.type	__metal_driver_sifive_pwm0_interrupt_id, @function
__metal_driver_sifive_pwm0_interrupt_id:
.LFB257:
	.loc 2 318 70
	.cfi_startproc
	addi	sp,sp,-32
	.cfi_def_cfa_offset 32
	sw	ra,28(sp)
	sw	s0,24(sp)
	.cfi_offset 1, -4
	.cfi_offset 8, -8
	addi	s0,sp,32
	.cfi_def_cfa 8, 0
	sw	a0,-20(s0)
	sw	a1,-24(s0)
	.loc 2 319 12
	lw	a5,-24(s0)
	mv	a1,a5
	lw	a0,-20(s0)
	call	__metal_driver_sifive_pwm0_interrupt_lines
	mv	a5,a0
	.loc 2 320 1
	mv	a0,a5
	lw	ra,28(sp)
	.cfi_restore 1
	lw	s0,24(sp)
	.cfi_restore 8
	.cfi_def_cfa 2, 32
	addi	sp,sp,32
	.cfi_def_cfa_offset 0
	jr	ra
	.cfi_endproc
.LFE257:
	.size	__metal_driver_sifive_pwm0_interrupt_id, .-__metal_driver_sifive_pwm0_interrupt_id
	.globl	__metal_driver_vtable_sifive_pwm0
	.section	.rodata.__metal_driver_vtable_sifive_pwm0,"a"
	.align	2
	.type	__metal_driver_vtable_sifive_pwm0, @object
	.size	__metal_driver_vtable_sifive_pwm0, 48
__metal_driver_vtable_sifive_pwm0:
	.word	__metal_driver_sifive_pwm0_enable
	.word	__metal_driver_sifive_pwm0_disable
	.word	__metal_driver_sifive_pwm0_set_freq
	.word	__metal_driver_sifive_pwm0_set_duty
	.word	__metal_driver_sifive_pwm0_get_duty
	.word	__metal_driver_sifive_pwm0_get_freq
	.word	__metal_driver_sifive_pwm0_trigger
	.word	__metal_driver_sifive_pwm0_stop
	.word	__metal_driver_sifive_pwm0_cfg_interrupt
	.word	__metal_driver_sifive_pwm0_clr_interrupt
	.word	__metal_driver_sifive_pwm0_interrupt_controller
	.word	__metal_driver_sifive_pwm0_interrupt_id
	.text
.Letext0:
	.file 3 "/home/gra2p/Documents/uva_courses/rp1/src/freedom-metal/metal/clock.h"
	.file 4 "/home/gra2p/Documents/uva_courses/rp1/tools/riscv64-unknown-elf-toolchain-10.2.0-2020.12.8-x86_64-linux-ubuntu14/lib/gcc/riscv64-unknown-elf/10.2.0/include/stddef.h"
	.file 5 "/home/gra2p/Documents/uva_courses/rp1/src/freedom-metal/metal/interrupt.h"
	.file 6 "/home/gra2p/Documents/uva_courses/rp1/src/freedom-metal/metal/gpio.h"
	.file 7 "/home/gra2p/Documents/uva_courses/rp1/src/freedom-metal/metal/drivers/sifive_gpio0.h"
	.file 8 "/home/gra2p/Documents/uva_courses/rp1/src/freedom-metal/metal/pwm.h"
	.file 9 "/home/gra2p/Documents/uva_courses/rp1/src/freedom-metal/metal/drivers/sifive_pwm0.h"
	.file 10 "/home/gra2p/Documents/uva_courses/rp1/src/freedom-metal/metal/io.h"
	.file 11 "/home/gra2p/Documents/uva_courses/rp1/tools/riscv64-unknown-elf-toolchain-10.2.0-2020.12.8-x86_64-linux-ubuntu14/riscv64-unknown-elf/include/machine/_default_types.h"
	.file 12 "/home/gra2p/Documents/uva_courses/rp1/tools/riscv64-unknown-elf-toolchain-10.2.0-2020.12.8-x86_64-linux-ubuntu14/riscv64-unknown-elf/include/sys/_stdint.h"
	.file 13 "/home/gra2p/Documents/uva_courses/rp1/src/freedom-metal/metal/memory.h"
	.file 14 "/home/gra2p/Documents/uva_courses/rp1/src/freedom-metal/metal/cpu.h"
	.file 15 "/home/gra2p/Documents/uva_courses/rp1/src/freedom-metal/metal/drivers/riscv_cpu.h"
	.file 16 "/home/gra2p/Documents/uva_courses/rp1/src/freedom-metal/metal/drivers/riscv_plic0.h"
	.file 17 "/home/gra2p/Documents/uva_courses/rp1/src/freedom-metal/metal/led.h"
	.file 18 "/home/gra2p/Documents/uva_courses/rp1/src/freedom-metal/metal/drivers/sifive_gpio-leds.h"
	.file 19 "/home/gra2p/Documents/uva_courses/rp1/src/freedom-metal/metal/i2c.h"
	.file 20 "/home/gra2p/Documents/uva_courses/rp1/src/freedom-metal/metal/drivers/sifive_i2c0.h"
	.file 21 "/home/gra2p/Documents/uva_courses/rp1/src/freedom-metal/metal/rtc.h"
	.file 22 "/home/gra2p/Documents/uva_courses/rp1/src/freedom-metal/metal/drivers/sifive_rtc0.h"
	.file 23 "/home/gra2p/Documents/uva_courses/rp1/src/freedom-metal/metal/spi.h"
	.file 24 "/home/gra2p/Documents/uva_courses/rp1/src/freedom-metal/metal/drivers/sifive_spi0.h"
	.file 25 "/home/gra2p/Documents/uva_courses/rp1/src/freedom-metal/metal/uart.h"
	.file 26 "/home/gra2p/Documents/uva_courses/rp1/src/freedom-metal/metal/drivers/sifive_uart0.h"
	.file 27 "/home/gra2p/Documents/uva_courses/rp1/src/freedom-metal/metal/watchdog.h"
	.file 28 "/home/gra2p/Documents/uva_courses/rp1/src/freedom-metal/metal/drivers/sifive_wdog0.h"
	.file 29 "/home/gra2p/Documents/uva_courses/rp1/src/freedom-metal/metal/drivers/sifive_fe310-g000_pll.h"