	.file	"sifive_buserror0.c"
	.option nopic
	.attribute arch, "rv32i2p0_m2p0_a2p0_c2p0"
	.attribute unaligned_access, 0
	.attribute stack_align, 16
	.text
.Ltext0:
	.cfi_sections	.debug_frame
	.section	.text.metal_buserror_set_event_enabled,"ax",@progbits
	.align	1
	.globl	metal_buserror_set_event_enabled
	.type	metal_buserror_set_event_enabled, @function
metal_buserror_set_event_enabled:
.LFB0:
	.file 1 "/home/gra2p/Documents/uva_courses/rp1/src/freedom-metal/src/drivers/sifive_buserror0.c"
	.loc 1 208 51
	.cfi_startproc
	addi	sp,sp,-32
	.cfi_def_cfa_offset 32
	sw	s0,28(sp)
	.cfi_offset 8, -4
	addi	s0,sp,32
	.cfi_def_cfa 8, 0
	sw	a0,-20(s0)
	sw	a1,-24(s0)
	mv	a5,a2
	sb	a5,-25(s0)
	.loc 1 209 12
	li	a5,1
	.loc 1 210 1
	mv	a0,a5
	lw	s0,28(sp)
	.cfi_restore 8
	.cfi_def_cfa 2, 32
	addi	sp,sp,32
	.cfi_def_cfa_offset 0
	jr	ra
	.cfi_endproc
.LFE0:
	.size	metal_buserror_set_event_enabled, .-metal_buserror_set_event_enabled
	.section	.text.metal_buserror_set_platform_interrupt,"ax",@progbits
	.align	1
	.globl	metal_buserror_set_platform_interrupt
	.type	metal_buserror_set_platform_interrupt, @function
metal_buserror_set_platform_interrupt:
.LFB1:
	.loc 1 214 56
	.cfi_startproc
	addi	sp,sp,-32
	.cfi_def_cfa_offset 32
	sw	s0,28(sp)
	.cfi_offset 8, -4
	addi	s0,sp,32
	.cfi_def_cfa 8, 0
	sw	a0,-20(s0)
	sw	a1,-24(s0)
	mv	a5,a2
	sb	a5,-25(s0)
	.loc 1 215 12
	li	a5,1
	.loc 1 216 1
	mv	a0,a5
	lw	s0,28(sp)
	.cfi_restore 8
	.cfi_def_cfa 2, 32
	addi	sp,sp,32
	.cfi_def_cfa_offset 0
	jr	ra
	.cfi_endproc
.LFE1:
	.size	metal_buserror_set_platform_interrupt, .-metal_buserror_set_platform_interrupt
	.section	.text.metal_buserror_set_local_interrupt,"ax",@progbits
	.align	1
	.globl	metal_buserror_set_local_interrupt
	.type	metal_buserror_set_local_interrupt, @function
metal_buserror_set_local_interrupt:
.LFB2:
	.loc 1 220 53
	.cfi_startproc
	addi	sp,sp,-32
	.cfi_def_cfa_offset 32
	sw	s0,28(sp)
	.cfi_offset 8, -4
	addi	s0,sp,32
	.cfi_def_cfa 8, 0
	sw	a0,-20(s0)
	sw	a1,-24(s0)
	mv	a5,a2
	sb	a5,-25(s0)
	.loc 1 221 12
	li	a5,1
	.loc 1 222 1
	mv	a0,a5
	lw	s0,28(sp)
	.cfi_restore 8
	.cfi_def_cfa 2, 32
	addi	sp,sp,32
	.cfi_def_cfa_offset 0
	jr	ra
	.cfi_endproc
.LFE2:
	.size	metal_buserror_set_local_interrupt, .-metal_buserror_set_local_interrupt
	.section	.text.metal_buserror_get_cause,"ax",@progbits
	.align	1
	.globl	metal_buserror_get_cause
	.type	metal_buserror_get_cause, @function
metal_buserror_get_cause:
.LFB3:
	.loc 1 224 77
	.cfi_startproc
	addi	sp,sp,-32
	.cfi_def_cfa_offset 32
	sw	s0,28(sp)
	.cfi_offset 8, -4
	addi	s0,sp,32
	.cfi_def_cfa 8, 0
	sw	a0,-20(s0)
	.loc 1 225 12
	li	a5,256
	.loc 1 226 1
	mv	a0,a5
	lw	s0,28(sp)
	.cfi_restore 8
	.cfi_def_cfa 2, 32
	addi	sp,sp,32
	.cfi_def_cfa_offset 0
	jr	ra
	.cfi_endproc
.LFE3:
	.size	metal_buserror_get_cause, .-metal_buserror_get_cause
	.section	.text.metal_buserror_clear_cause,"ax",@progbits
	.align	1
	.globl	metal_buserror_clear_cause
	.type	metal_buserror_clear_cause, @function
metal_buserror_clear_cause:
.LFB4:
	.loc 1 228 60
	.cfi_startproc
	addi	sp,sp,-32
	.cfi_def_cfa_offset 32
	sw	s0,28(sp)
	.cfi_offset 8, -4
	addi	s0,sp,32
	.cfi_def_cfa 8, 0
	sw	a0,-20(s0)
	.loc 1 228 69
	li	a5,512
	.loc 1 228 79
	mv	a0,a5
	lw	s0,28(sp)
	.cfi_restore 8
	.cfi_def_cfa 2, 32
	addi	sp,sp,32
	.cfi_def_cfa_offset 0
	jr	ra
	.cfi_endproc
.LFE4:
	.size	metal_buserror_clear_cause, .-metal_buserror_clear_cause
	.section	.text.metal_buserror_get_event_address,"ax",@progbits
	.align	1
	.globl	metal_buserror_get_event_address
	.type	metal_buserror_get_event_address, @function
metal_buserror_get_event_address:
.LFB5:
	.loc 1 230 72
	.cfi_startproc
	addi	sp,sp,-32
	.cfi_def_cfa_offset 32
	sw	s0,28(sp)
	.cfi_offset 8, -4
	addi	s0,sp,32
	.cfi_def_cfa 8, 0
	sw	a0,-20(s0)
	.loc 1 231 12
	li	a5,0
	.loc 1 232 1
	mv	a0,a5
	lw	s0,28(sp)
	.cfi_restore 8
	.cfi_def_cfa 2, 32
	addi	sp,sp,32
	.cfi_def_cfa_offset 0
	jr	ra
	.cfi_endproc
.LFE5:
	.size	metal_buserror_get_event_address, .-metal_buserror_get_event_address
	.section	.text.metal_buserror_is_event_accrued,"ax",@progbits
	.align	1
	.globl	metal_buserror_is_event_accrued
	.type	metal_buserror_is_event_accrued, @function
metal_buserror_is_event_accrued:
.LFB6:
	.loc 1 235 68
	.cfi_startproc
	addi	sp,sp,-32
	.cfi_def_cfa_offset 32
	sw	s0,28(sp)
	.cfi_offset 8, -4
	addi	s0,sp,32
	.cfi_def_cfa 8, 0
	sw	a0,-20(s0)
	sw	a1,-24(s0)
	.loc 1 236 11
	li	a5,0
	.loc 1 237 1
	mv	a0,a5
	lw	s0,28(sp)
	.cfi_restore 8
	.cfi_def_cfa 2, 32
	addi	sp,sp,32
	.cfi_def_cfa_offset 0
	jr	ra
	.cfi_endproc
.LFE6:
	.size	metal_buserror_is_event_accrued, .-metal_buserror_is_event_accrued
	.section	.text.metal_buserror_clear_event_accrued,"ax",@progbits
	.align	1
	.globl	metal_buserror_clear_event_accrued
	.type	metal_buserror_clear_event_accrued, @function
metal_buserror_clear_event_accrued:
.LFB7:
	.loc 1 240 70
	.cfi_startproc
	addi	sp,sp,-32
	.cfi_def_cfa_offset 32
	sw	s0,28(sp)
	.cfi_offset 8, -4
	addi	s0,sp,32
	.cfi_def_cfa 8, 0
	sw	a0,-20(s0)
	sw	a1,-24(s0)
	.loc 1 241 12
	li	a5,256
	.loc 1 242 1
	mv	a0,a5
	lw	s0,28(sp)
	.cfi_restore 8
	.cfi_def_cfa 2, 32
	addi	sp,sp,32
	.cfi_def_cfa_offset 0
	jr	ra
	.cfi_endproc
.LFE7:
	.size	metal_buserror_clear_event_accrued, .-metal_buserror_clear_event_accrued
	.section	.text.metal_buserror_get_platform_interrupt_parent,"ax",@progbits
	.align	1
	.globl	metal_buserror_get_platform_interrupt_parent
	.type	metal_buserror_get_platform_interrupt_parent, @function
metal_buserror_get_platform_interrupt_parent:
.LFB8:
	.loc 1 245 74
	.cfi_startproc
	addi	sp,sp,-32
	.cfi_def_cfa_offset 32
	sw	s0,28(sp)
	.cfi_offset 8, -4
	addi	s0,sp,32
	.cfi_def_cfa 8, 0
	sw	a0,-20(s0)
	.loc 1 246 11
	li	a5,0
	.loc 1 247 1
	mv	a0,a5
	lw	s0,28(sp)
	.cfi_restore 8
	.cfi_def_cfa 2, 32
	addi	sp,sp,32
	.cfi_def_cfa_offset 0
	jr	ra
	.cfi_endproc
.LFE8:
	.size	metal_buserror_get_platform_interrupt_parent, .-metal_buserror_get_platform_interrupt_parent
	.section	.text.metal_buserror_get_platform_interrupt_id,"ax",@progbits
	.align	1
	.globl	metal_buserror_get_platform_interrupt_id
	.type	metal_buserror_get_platform_interrupt_id, @function
metal_buserror_get_platform_interrupt_id:
.LFB9:
	.loc 1 249 74
	.cfi_startproc
	addi	sp,sp,-32
	.cfi_def_cfa_offset 32
	sw	s0,28(sp)
	.cfi_offset 8, -4
	addi	s0,sp,32
	.cfi_def_cfa 8, 0
	sw	a0,-20(s0)
	.loc 1 250 12
	li	a5,0
	.loc 1 251 1
	mv	a0,a5
	lw	s0,28(sp)
	.cfi_restore 8
	.cfi_def_cfa 2, 32
	addi	sp,sp,32
	.cfi_def_cfa_offset 0
	jr	ra
	.cfi_endproc
.LFE9:
	.size	metal_buserror_get_platform_interrupt_id, .-metal_buserror_get_platform_interrupt_id
	.section	.text.metal_buserror_get_local_interrupt_id,"ax",@progbits
	.align	1
	.globl	metal_buserror_get_local_interrupt_id
	.type	metal_buserror_get_local_interrupt_id, @function
metal_buserror_get_local_interrupt_id:
.LFB10:
	.loc 1 253 71
	.cfi_startproc
	addi	sp,sp,-32
	.cfi_def_cfa_offset 32
	sw	s0,28(sp)
	.cfi_offset 8, -4
	addi	s0,sp,32
	.cfi_def_cfa 8, 0
	sw	a0,-20(s0)
	.loc 1 254 12
	li	a5,0
	.loc 1 255 1
	mv	a0,a5
	lw	s0,28(sp)
	.cfi_restore 8
	.cfi_def_cfa 2, 32
	addi	sp,sp,32
	.cfi_def_cfa_offset 0
	jr	ra
	.cfi_endproc
.LFE10:
	.size	metal_buserror_get_local_interrupt_id, .-metal_buserror_get_local_interrupt_id
	.text
.Letext0:
	.file 2 "/home/gra2p/Documents/uva_courses/rp1/tools/riscv64-unknown-elf-toolchain-10.2.0-2020.12.8-x86_64-linux-ubuntu14/riscv64-unknown-elf/include/machine/_default_types.h"
	.file 3 "/home/gra2p/Documents/uva_courses/rp1/tools/riscv64-unknown-elf-toolchain-10.2.0-2020.12.8-x86_64-linux-ubuntu14/riscv64-unknown-elf/include/sys/_stdint.h"
	.file 4 "/home/gra2p/Documents/uva_courses/rp1/src/freedom-metal/metal/drivers/sifive_buserror0.h"