	.file	"sifive_gpio0.c"
	.option nopic
	.attribute arch, "rv32i2p0_m2p0_a2p0_c2p0"
	.attribute unaligned_access, 0
	.attribute stack_align, 16
	.text
.Ltext0:
	.cfi_sections	.debug_frame
	.section	.text.__metal_driver_sifive_gpio0_base,"ax",@progbits
	.align	1
	.type	__metal_driver_sifive_gpio0_base, @function
__metal_driver_sifive_gpio0_base:
.LFB145:
	.file 1 "./metal/machine.h"
	.loc 1 430 1
	.cfi_startproc
	addi	sp,sp,-32
	.cfi_def_cfa_offset 32
	sw	s0,28(sp)
	.cfi_offset 8, -4
	addi	s0,sp,32
	.cfi_def_cfa 8, 0
	sw	a0,-20(s0)
	.loc 1 431 6
	lw	a4,-20(s0)
	.loc 1 431 25
	lui	a5,%hi(__metal_dt_gpio_10012000)
	addi	a5,a5,%lo(__metal_dt_gpio_10012000)
	.loc 1 431 5
	bne	a4,a5,.L2
	.loc 1 432 10
	li	a5,268509184
	j	.L3
.L2:
	.loc 1 435 10
	li	a5,0
.L3:
	.loc 1 437 1
	mv	a0,a5
	lw	s0,28(sp)
	.cfi_restore 8
	.cfi_def_cfa 2, 32
	addi	sp,sp,32
	.cfi_def_cfa_offset 0
	jr	ra
	.cfi_endproc
.LFE145:
	.size	__metal_driver_sifive_gpio0_base, .-__metal_driver_sifive_gpio0_base
	.section	.text.__metal_driver_sifive_gpio0_interrupt_parent,"ax",@progbits
	.align	1
	.type	__metal_driver_sifive_gpio0_interrupt_parent, @function
__metal_driver_sifive_gpio0_interrupt_parent:
.LFB148:
	.loc 1 460 1
	.cfi_startproc
	addi	sp,sp,-32
	.cfi_def_cfa_offset 32
	sw	s0,28(sp)
	.cfi_offset 8, -4
	addi	s0,sp,32
	.cfi_def_cfa 8, 0
	sw	a0,-20(s0)
	.loc 1 461 6
	lw	a4,-20(s0)
	.loc 1 461 25
	lui	a5,%hi(__metal_dt_gpio_10012000)
	addi	a5,a5,%lo(__metal_dt_gpio_10012000)
	.loc 1 461 5
	bne	a4,a5,.L5
	.loc 1 462 10
	lui	a5,%hi(__metal_dt_interrupt_controller_c000000)
	addi	a5,a5,%lo(__metal_dt_interrupt_controller_c000000)
	j	.L6
.L5:
	.loc 1 465 10
	li	a5,0
.L6:
	.loc 1 467 1
	mv	a0,a5
	lw	s0,28(sp)
	.cfi_restore 8
	.cfi_def_cfa 2, 32
	addi	sp,sp,32
	.cfi_def_cfa_offset 0
	jr	ra
	.cfi_endproc
.LFE148:
	.size	__metal_driver_sifive_gpio0_interrupt_parent, .-__metal_driver_sifive_gpio0_interrupt_parent
	.section	.text.__metal_driver_sifive_gpio0_interrupt_lines,"ax",@progbits
	.align	1
	.type	__metal_driver_sifive_gpio0_interrupt_lines, @function
__metal_driver_sifive_gpio0_interrupt_lines:
.LFB149:
	.loc 1 470 1
	.cfi_startproc
	addi	sp,sp,-32
	.cfi_def_cfa_offset 32
	sw	s0,28(sp)
	.cfi_offset 8, -4
	addi	s0,sp,32
	.cfi_def_cfa 8, 0
	sw	a0,-20(s0)
	sw	a1,-24(s0)
	.loc 1 471 7
	lw	a4,-20(s0)
	.loc 1 471 26
	lui	a5,%hi(__metal_dt_gpio_10012000)
	addi	a5,a5,%lo(__metal_dt_gpio_10012000)
	.loc 1 471 5
	bne	a4,a5,.L8
	.loc 1 471 64 discriminator 1
	lw	a5,-24(s0)
	bne	a5,zero,.L8
	.loc 1 472 10
	li	a5,8
	j	.L9
.L8:
	.loc 1 474 13
	lw	a4,-20(s0)
	.loc 1 474 32
	lui	a5,%hi(__metal_dt_gpio_10012000)
	addi	a5,a5,%lo(__metal_dt_gpio_10012000)
	.loc 1 474 10
	bne	a4,a5,.L10
	.loc 1 474 70 discriminator 1
	lw	a4,-24(s0)
	li	a5,1
	bne	a4,a5,.L10
	.loc 1 475 10
	li	a5,9
	j	.L9
.L10:
	.loc 1 477 13
	lw	a4,-20(s0)
	.loc 1 477 32
	lui	a5,%hi(__metal_dt_gpio_10012000)
	addi	a5,a5,%lo(__metal_dt_gpio_10012000)
	.loc 1 477 10
	bne	a4,a5,.L11
	.loc 1 477 70 discriminator 1
	lw	a4,-24(s0)
	li	a5,2
	bne	a4,a5,.L11
	.loc 1 478 10
	li	a5,10
	j	.L9
.L11:
	.loc 1 480 13
	lw	a4,-20(s0)
	.loc 1 480 32
	lui	a5,%hi(__metal_dt_gpio_10012000)
	addi	a5,a5,%lo(__metal_dt_gpio_10012000)
	.loc 1 480 10
	bne	a4,a5,.L12
	.loc 1 480 70 discriminator 1
	lw	a4,-24(s0)
	li	a5,3
	bne	a4,a5,.L12
	.loc 1 481 10
	li	a5,11
	j	.L9
.L12:
	.loc 1 483 13
	lw	a4,-20(s0)
	.loc 1 483 32
	lui	a5,%hi(__metal_dt_gpio_10012000)
	addi	a5,a5,%lo(__metal_dt_gpio_10012000)
	.loc 1 483 10
	bne	a4,a5,.L13
	.loc 1 483 70 discriminator 1
	lw	a4,-24(s0)
	li	a5,4
	bne	a4,a5,.L13
	.loc 1 484 10
	li	a5,12
	j	.L9
.L13:
	.loc 1 486 13
	lw	a4,-20(s0)
	.loc 1 486 32
	lui	a5,%hi(__metal_dt_gpio_10012000)
	addi	a5,a5,%lo(__metal_dt_gpio_10012000)
	.loc 1 486 10
	bne	a4,a5,.L14
	.loc 1 486 70 discriminator 1
	lw	a4,-24(s0)
	li	a5,5
	bne	a4,a5,.L14
	.loc 1 487 10
	li	a5,13
	j	.L9
.L14:
	.loc 1 489 13
	lw	a4,-20(s0)
	.loc 1 489 32
	lui	a5,%hi(__metal_dt_gpio_10012000)
	addi	a5,a5,%lo(__metal_dt_gpio_10012000)
	.loc 1 489 10
	bne	a4,a5,.L15
	.loc 1 489 70 discriminator 1
	lw	a4,-24(s0)
	li	a5,6
	bne	a4,a5,.L15
	.loc 1 490 10
	li	a5,14
	j	.L9
.L15:
	.loc 1 492 13
	lw	a4,-20(s0)
	.loc 1 492 32
	lui	a5,%hi(__metal_dt_gpio_10012000)
	addi	a5,a5,%lo(__metal_dt_gpio_10012000)
	.loc 1 492 10
	bne	a4,a5,.L16
	.loc 1 492 70 discriminator 1
	lw	a4,-24(s0)
	li	a5,7
	bne	a4,a5,.L16
	.loc 1 493 10
	li	a5,15
	j	.L9
.L16:
	.loc 1 495 13
	lw	a4,-20(s0)
	.loc 1 495 32
	lui	a5,%hi(__metal_dt_gpio_10012000)
	addi	a5,a5,%lo(__metal_dt_gpio_10012000)
	.loc 1 495 10
	bne	a4,a5,.L17
	.loc 1 495 70 discriminator 1
	lw	a4,-24(s0)
	li	a5,8
	bne	a4,a5,.L17
	.loc 1 496 10
	li	a5,16
	j	.L9
.L17:
	.loc 1 498 13
	lw	a4,-20(s0)
	.loc 1 498 32
	lui	a5,%hi(__metal_dt_gpio_10012000)
	addi	a5,a5,%lo(__metal_dt_gpio_10012000)
	.loc 1 498 10
	bne	a4,a5,.L18
	.loc 1 498 70 discriminator 1
	lw	a4,-24(s0)
	li	a5,9
	bne	a4,a5,.L18
	.loc 1 499 10
	li	a5,17
	j	.L9
.L18:
	.loc 1 501 13
	lw	a4,-20(s0)
	.loc 1 501 32
	lui	a5,%hi(__metal_dt_gpio_10012000)
	addi	a5,a5,%lo(__metal_dt_gpio_10012000)
	.loc 1 501 10
	bne	a4,a5,.L19
	.loc 1 501 70 discriminator 1
	lw	a4,-24(s0)
	li	a5,10
	bne	a4,a5,.L19
	.loc 1 502 10
	li	a5,18
	j	.L9
.L19:
	.loc 1 504 13
	lw	a4,-20(s0)
	.loc 1 504 32
	lui	a5,%hi(__metal_dt_gpio_10012000)
	addi	a5,a5,%lo(__metal_dt_gpio_10012000)
	.loc 1 504 10
	bne	a4,a5,.L20
	.loc 1 504 70 discriminator 1
	lw	a4,-24(s0)
	li	a5,11
	bne	a4,a5,.L20
	.loc 1 505 10
	li	a5,19
	j	.L9
.L20:
	.loc 1 507 13
	lw	a4,-20(s0)
	.loc 1 507 32
	lui	a5,%hi(__metal_dt_gpio_10012000)
	addi	a5,a5,%lo(__metal_dt_gpio_10012000)
	.loc 1 507 10
	bne	a4,a5,.L21
	.loc 1 507 70 discriminator 1
	lw	a4,-24(s0)
	li	a5,12
	bne	a4,a5,.L21
	.loc 1 508 10
	li	a5,20
	j	.L9
.L21:
	.loc 1 510 13
	lw	a4,-20(s0)
	.loc 1 510 32
	lui	a5,%hi(__metal_dt_gpio_10012000)
	addi	a5,a5,%lo(__metal_dt_gpio_10012000)
	.loc 1 510 10
	bne	a4,a5,.L22
	.loc 1 510 70 discriminator 1
	lw	a4,-24(s0)
	li	a5,13
	bne	a4,a5,.L22
	.loc 1 511 10
	li	a5,21
	j	.L9
.L22:
	.loc 1 513 13
	lw	a4,-20(s0)
	.loc 1 513 32
	lui	a5,%hi(__metal_dt_gpio_10012000)
	addi	a5,a5,%lo(__metal_dt_gpio_10012000)
	.loc 1 513 10
	bne	a4,a5,.L23
	.loc 1 513 70 discriminator 1
	lw	a4,-24(s0)
	li	a5,14
	bne	a4,a5,.L23
	.loc 1 514 10
	li	a5,22
	j	.L9
.L23:
	.loc 1 516 13
	lw	a4,-20(s0)
	.loc 1 516 32
	lui	a5,%hi(__metal_dt_gpio_10012000)
	addi	a5,a5,%lo(__metal_dt_gpio_10012000)
	.loc 1 516 10
	bne	a4,a5,.L24
	.loc 1 516 70 discriminator 1
	lw	a4,-24(s0)
	li	a5,15
	bne	a4,a5,.L24
	.loc 1 517 10
	li	a5,23
	j	.L9
.L24:
	.loc 1 519 13
	lw	a4,-20(s0)
	.loc 1 519 32
	lui	a5,%hi(__metal_dt_gpio_10012000)
	addi	a5,a5,%lo(__metal_dt_gpio_10012000)
	.loc 1 519 10
	bne	a4,a5,.L25
	.loc 1 519 70 discriminator 1
	lw	a4,-24(s0)
	li	a5,16
	bne	a4,a5,.L25
	.loc 1 520 10
	li	a5,24
	j	.L9
.L25:
	.loc 1 522 13
	lw	a4,-20(s0)
	.loc 1 522 32
	lui	a5,%hi(__metal_dt_gpio_10012000)
	addi	a5,a5,%lo(__metal_dt_gpio_10012000)
	.loc 1 522 10
	bne	a4,a5,.L26
	.loc 1 522 70 discriminator 1
	lw	a4,-24(s0)
	li	a5,17
	bne	a4,a5,.L26
	.loc 1 523 10
	li	a5,25
	j	.L9
.L26:
	.loc 1 525 13
	lw	a4,-20(s0)
	.loc 1 525 32
	lui	a5,%hi(__metal_dt_gpio_10012000)
	addi	a5,a5,%lo(__metal_dt_gpio_10012000)
	.loc 1 525 10
	bne	a4,a5,.L27
	.loc 1 525 70 discriminator 1
	lw	a4,-24(s0)
	li	a5,18
	bne	a4,a5,.L27
	.loc 1 526 10
	li	a5,26
	j	.L9
.L27:
	.loc 1 528 13
	lw	a4,-20(s0)
	.loc 1 528 32
	lui	a5,%hi(__metal_dt_gpio_10012000)
	addi	a5,a5,%lo(__metal_dt_gpio_10012000)
	.loc 1 528 10
	bne	a4,a5,.L28
	.loc 1 528 70 discriminator 1
	lw	a4,-24(s0)
	li	a5,19
	bne	a4,a5,.L28
	.loc 1 529 10
	li	a5,27
	j	.L9
.L28:
	.loc 1 531 13
	lw	a4,-20(s0)
	.loc 1 531 32
	lui	a5,%hi(__metal_dt_gpio_10012000)
	addi	a5,a5,%lo(__metal_dt_gpio_10012000)
	.loc 1 531 10
	bne	a4,a5,.L29
	.loc 1 531 70 discriminator 1
	lw	a4,-24(s0)
	li	a5,20
	bne	a4,a5,.L29
	.loc 1 532 10
	li	a5,28
	j	.L9
.L29:
	.loc 1 534 13
	lw	a4,-20(s0)
	.loc 1 534 32
	lui	a5,%hi(__metal_dt_gpio_10012000)
	addi	a5,a5,%lo(__metal_dt_gpio_10012000)
	.loc 1 534 10
	bne	a4,a5,.L30
	.loc 1 534 70 discriminator 1
	lw	a4,-24(s0)
	li	a5,21
	bne	a4,a5,.L30
	.loc 1 535 10
	li	a5,29
	j	.L9
.L30:
	.loc 1 537 13
	lw	a4,-20(s0)
	.loc 1 537 32
	lui	a5,%hi(__metal_dt_gpio_10012000)
	addi	a5,a5,%lo(__metal_dt_gpio_10012000)
	.loc 1 537 10
	bne	a4,a5,.L31
	.loc 1 537 70 discriminator 1
	lw	a4,-24(s0)
	li	a5,22
	bne	a4,a5,.L31
	.loc 1 538 10
	li	a5,30
	j	.L9
.L31:
	.loc 1 540 13
	lw	a4,-20(s0)
	.loc 1 540 32
	lui	a5,%hi(__metal_dt_gpio_10012000)
	addi	a5,a5,%lo(__metal_dt_gpio_10012000)
	.loc 1 540 10
	bne	a4,a5,.L32
	.loc 1 540 70 discriminator 1
	lw	a4,-24(s0)
	li	a5,23
	bne	a4,a5,.L32
	.loc 1 541 10
	li	a5,31
	j	.L9
.L32:
	.loc 1 543 13
	lw	a4,-20(s0)
	.loc 1 543 32
	lui	a5,%hi(__metal_dt_gpio_10012000)
	addi	a5,a5,%lo(__metal_dt_gpio_10012000)
	.loc 1 543 10
	bne	a4,a5,.L33
	.loc 1 543 70 discriminator 1
	lw	a4,-24(s0)
	li	a5,24
	bne	a4,a5,.L33
	.loc 1 544 10
	li	a5,32
	j	.L9
.L33:
	.loc 1 546 13
	lw	a4,-20(s0)
	.loc 1 546 32
	lui	a5,%hi(__metal_dt_gpio_10012000)
	addi	a5,a5,%lo(__metal_dt_gpio_10012000)
	.loc 1 546 10
	bne	a4,a5,.L34
	.loc 1 546 70 discriminator 1
	lw	a4,-24(s0)
	li	a5,25
	bne	a4,a5,.L34
	.loc 1 547 10
	li	a5,33
	j	.L9
.L34:
	.loc 1 549 13
	lw	a4,-20(s0)
	.loc 1 549 32
	lui	a5,%hi(__metal_dt_gpio_10012000)
	addi	a5,a5,%lo(__metal_dt_gpio_10012000)
	.loc 1 549 10
	bne	a4,a5,.L35
	.loc 1 549 70 discriminator 1
	lw	a4,-24(s0)
	li	a5,26
	bne	a4,a5,.L35
	.loc 1 550 10
	li	a5,34
	j	.L9
.L35:
	.loc 1 552 13
	lw	a4,-20(s0)
	.loc 1 552 32
	lui	a5,%hi(__metal_dt_gpio_10012000)
	addi	a5,a5,%lo(__metal_dt_gpio_10012000)
	.loc 1 552 10
	bne	a4,a5,.L36
	.loc 1 552 70 discriminator 1
	lw	a4,-24(s0)
	li	a5,27
	bne	a4,a5,.L36
	.loc 1 553 10
	li	a5,35
	j	.L9
.L36:
	.loc 1 555 13
	lw	a4,-20(s0)
	.loc 1 555 32
	lui	a5,%hi(__metal_dt_gpio_10012000)
	addi	a5,a5,%lo(__metal_dt_gpio_10012000)
	.loc 1 555 10
	bne	a4,a5,.L37
	.loc 1 555 70 discriminator 1
	lw	a4,-24(s0)
	li	a5,28
	bne	a4,a5,.L37
	.loc 1 556 10
	li	a5,36
	j	.L9
.L37:
	.loc 1 558 13
	lw	a4,-20(s0)
	.loc 1 558 32
	lui	a5,%hi(__metal_dt_gpio_10012000)
	addi	a5,a5,%lo(__metal_dt_gpio_10012000)
	.loc 1 558 10
	bne	a4,a5,.L38
	.loc 1 558 70 discriminator 1
	lw	a4,-24(s0)
	li	a5,29
	bne	a4,a5,.L38
	.loc 1 559 10
	li	a5,27
	j	.L9
.L38:
	.loc 1 561 13
	lw	a4,-20(s0)
	.loc 1 561 32
	lui	a5,%hi(__metal_dt_gpio_10012000)
	addi	a5,a5,%lo(__metal_dt_gpio_10012000)
	.loc 1 561 10
	bne	a4,a5,.L39
	.loc 1 561 70 discriminator 1
	lw	a4,-24(s0)
	li	a5,30
	bne	a4,a5,.L39
	.loc 1 562 10
	li	a5,28
	j	.L9
.L39:
	.loc 1 564 13
	lw	a4,-20(s0)
	.loc 1 564 32
	lui	a5,%hi(__metal_dt_gpio_10012000)
	addi	a5,a5,%lo(__metal_dt_gpio_10012000)
	.loc 1 564 10
	bne	a4,a5,.L40
	.loc 1 564 70 discriminator 1
	lw	a4,-24(s0)
	li	a5,31
	bne	a4,a5,.L40
	.loc 1 565 10
	li	a5,29
	j	.L9
.L40:
	.loc 1 568 10
	li	a5,0
.L9:
	.loc 1 570 1
	mv	a0,a5
	lw	s0,28(sp)
	.cfi_restore 8
	.cfi_def_cfa 2, 32
	addi	sp,sp,32
	.cfi_def_cfa_offset 0
	jr	ra
	.cfi_endproc
.LFE149:
	.size	__metal_driver_sifive_gpio0_interrupt_lines, .-__metal_driver_sifive_gpio0_interrupt_lines
	.weak	__metal_memory_table
	.section	.data.__metal_memory_table,"aw"
	.align	2
	.type	__metal_memory_table, @object
	.size	__metal_memory_table, 12
__metal_memory_table:
	.word	__metal_dt_mem_dtim_80000000
	.word	__metal_dt_mem_itim_8000000
	.word	__metal_dt_mem_spi_10014000
	.weak	__metal_cpu_table
	.section	.sdata.__metal_cpu_table,"aw"
	.align	2
	.type	__metal_cpu_table, @object
	.size	__metal_cpu_table, 4
__metal_cpu_table:
	.word	__metal_dt_cpu_0
	.weak	__metal_gpio_table
	.section	.sdata.__metal_gpio_table,"aw"
	.align	2
	.type	__metal_gpio_table, @object
	.size	__metal_gpio_table, 4
__metal_gpio_table:
	.word	__metal_dt_gpio_10012000
	.weak	__metal_button_table
	.section	.sbss.__metal_button_table,"aw",@nobits
	.align	2
	.type	__metal_button_table, @object
	.size	__metal_button_table, 4
__metal_button_table:
	.zero	4
	.weak	__metal_led_table
	.section	.data.__metal_led_table,"aw"
	.align	2
	.type	__metal_led_table, @object
	.size	__metal_led_table, 12
__metal_led_table:
	.word	__metal_dt_led_0
	.word	__metal_dt_led_1
	.word	__metal_dt_led_2
	.weak	__metal_switch_table
	.section	.sbss.__metal_switch_table,"aw",@nobits
	.align	2
	.type	__metal_switch_table, @object
	.size	__metal_switch_table, 4
__metal_switch_table:
	.zero	4
	.weak	__metal_i2c_table
	.section	.sdata.__metal_i2c_table,"aw"
	.align	2
	.type	__metal_i2c_table, @object
	.size	__metal_i2c_table, 4
__metal_i2c_table:
	.word	__metal_dt_i2c_10016000
	.weak	__metal_pwm_table
	.section	.data.__metal_pwm_table,"aw"
	.align	2
	.type	__metal_pwm_table, @object
	.size	__metal_pwm_table, 12
__metal_pwm_table:
	.word	__metal_dt_pwm_10015000
	.word	__metal_dt_pwm_10025000
	.word	__metal_dt_pwm_10035000
	.weak	__metal_rtc_table
	.section	.sdata.__metal_rtc_table,"aw"
	.align	2
	.type	__metal_rtc_table, @object
	.size	__metal_rtc_table, 4
__metal_rtc_table:
	.word	__metal_dt_rtc_10000000
	.weak	__metal_spi_table
	.section	.data.__metal_spi_table,"aw"
	.align	2
	.type	__metal_spi_table, @object
	.size	__metal_spi_table, 12
__metal_spi_table:
	.word	__metal_dt_spi_10014000
	.word	__metal_dt_spi_10024000
	.word	__metal_dt_spi_10034000
	.weak	__metal_uart_table
	.section	.sdata.__metal_uart_table,"aw"
	.align	2
	.type	__metal_uart_table, @object
	.size	__metal_uart_table, 8
__metal_uart_table:
	.word	__metal_dt_serial_10013000
	.word	__metal_dt_serial_10023000
	.weak	__metal_simuart_table
	.section	.sbss.__metal_simuart_table,"aw",@nobits
	.align	2
	.type	__metal_simuart_table, @object
	.size	__metal_simuart_table, 4
__metal_simuart_table:
	.zero	4
	.weak	__metal_wdog_table
	.section	.sdata.__metal_wdog_table,"aw"
	.align	2
	.type	__metal_wdog_table, @object
	.size	__metal_wdog_table, 4
__metal_wdog_table:
	.word	__metal_dt_aon_10000000
	.section	.text.__metal_driver_sifive_gpio0_enable_input,"ax",@progbits
	.align	1
	.globl	__metal_driver_sifive_gpio0_enable_input
	.type	__metal_driver_sifive_gpio0_enable_input, @function
__metal_driver_sifive_gpio0_enable_input:
.LFB219:
	.file 2 "/home/gra2p/Documents/uva_courses/rp1/src/freedom-metal/src/drivers/sifive_gpio0.c"
	.loc 2 13 59
	.cfi_startproc
	addi	sp,sp,-48
	.cfi_def_cfa_offset 48
	sw	ra,44(sp)
	sw	s0,40(sp)
	.cfi_offset 1, -4
	.cfi_offset 8, -8
	addi	s0,sp,48
	.cfi_def_cfa 8, 0
	sw	a0,-36(s0)
	sw	a1,-40(s0)
	.loc 2 14 17
	lw	a0,-36(s0)
	call	__metal_driver_sifive_gpio0_base
	mv	a5,a0
	.loc 2 14 10
	sw	a5,-20(s0)
	.loc 2 17 65
	lw	a5,-20(s0)
	addi	a5,a5,4
	lw	a4,0(a5)
	lw	a5,-40(s0)
	lw	a3,-20(s0)
	addi	a3,a3,4
	or	a5,a4,a5
	sw	a5,0(a3)
	.loc 2 19 12
	li	a5,0
	.loc 2 20 1
	mv	a0,a5
	lw	ra,44(sp)
	.cfi_restore 1
	lw	s0,40(sp)
	.cfi_restore 8
	.cfi_def_cfa 2, 48
	addi	sp,sp,48
	.cfi_def_cfa_offset 0
	jr	ra
	.cfi_endproc
.LFE219:
	.size	__metal_driver_sifive_gpio0_enable_input, .-__metal_driver_sifive_gpio0_enable_input
	.section	.text.__metal_driver_sifive_gpio0_disable_input,"ax",@progbits
	.align	1
	.globl	__metal_driver_sifive_gpio0_disable_input
	.type	__metal_driver_sifive_gpio0_disable_input, @function
__metal_driver_sifive_gpio0_disable_input:
.LFB220:
	.loc 2 23 60
	.cfi_startproc
	addi	sp,sp,-48
	.cfi_def_cfa_offset 48
	sw	ra,44(sp)
	sw	s0,40(sp)
	.cfi_offset 1, -4
	.cfi_offset 8, -8
	addi	s0,sp,48
	.cfi_def_cfa 8, 0
	sw	a0,-36(s0)
	sw	a1,-40(s0)
	.loc 2 24 17
	lw	a0,-36(s0)
	call	__metal_driver_sifive_gpio0_base
	mv	a5,a0
	.loc 2 24 10
	sw	a5,-20(s0)
	.loc 2 27 65
	lw	a5,-20(s0)
	addi	a5,a5,4
	lw	a5,0(a5)
	.loc 2 27 68
	lw	a4,-40(s0)
	not	a4,a4
	mv	a3,a4
	.loc 2 27 65
	lw	a4,-20(s0)
	addi	a4,a4,4
	and	a5,a5,a3
	sw	a5,0(a4)
	.loc 2 29 12
	li	a5,0
	.loc 2 30 1
	mv	a0,a5
	lw	ra,44(sp)
	.cfi_restore 1
	lw	s0,40(sp)
	.cfi_restore 8
	.cfi_def_cfa 2, 48
	addi	sp,sp,48
	.cfi_def_cfa_offset 0
	jr	ra
	.cfi_endproc
.LFE220:
	.size	__metal_driver_sifive_gpio0_disable_input, .-__metal_driver_sifive_gpio0_disable_input
	.section	.text.__metal_driver_sifive_gpio0_input,"ax",@progbits
	.align	1
	.globl	__metal_driver_sifive_gpio0_input
	.type	__metal_driver_sifive_gpio0_input, @function
__metal_driver_sifive_gpio0_input:
.LFB221:
	.loc 2 32 66
	.cfi_startproc
	addi	sp,sp,-48
	.cfi_def_cfa_offset 48
	sw	ra,44(sp)
	sw	s0,40(sp)
	.cfi_offset 1, -4
	.cfi_offset 8, -8
	addi	s0,sp,48
	.cfi_def_cfa 8, 0
	sw	a0,-36(s0)
	.loc 2 33 17
	lw	a0,-36(s0)
	call	__metal_driver_sifive_gpio0_base
	mv	a5,a0
	.loc 2 33 10
	sw	a5,-20(s0)
	.loc 2 35 14
	lw	a5,-20(s0)
	.loc 2 35 13
	lw	a5,0(a5)
	.loc 2 37 1
	mv	a0,a5
	lw	ra,44(sp)
	.cfi_restore 1
	lw	s0,40(sp)
	.cfi_restore 8
	.cfi_def_cfa 2, 48
	addi	sp,sp,48
	.cfi_def_cfa_offset 0
	jr	ra
	.cfi_endproc
.LFE221:
	.size	__metal_driver_sifive_gpio0_input, .-__metal_driver_sifive_gpio0_input
	.section	.text.__metal_driver_sifive_gpio0_output,"ax",@progbits
	.align	1
	.globl	__metal_driver_sifive_gpio0_output
	.type	__metal_driver_sifive_gpio0_output, @function
__metal_driver_sifive_gpio0_output:
.LFB222:
	.loc 2 39 67
	.cfi_startproc
	addi	sp,sp,-48
	.cfi_def_cfa_offset 48
	sw	ra,44(sp)
	sw	s0,40(sp)
	.cfi_offset 1, -4
	.cfi_offset 8, -8
	addi	s0,sp,48
	.cfi_def_cfa 8, 0
	sw	a0,-36(s0)
	.loc 2 40 17
	lw	a0,-36(s0)
	call	__metal_driver_sifive_gpio0_base
	mv	a5,a0
	.loc 2 40 10
	sw	a5,-20(s0)
	.loc 2 42 96
	lw	a5,-20(s0)
	addi	a5,a5,12
	.loc 2 42 13
	lw	a5,0(a5)
	.loc 2 44 1
	mv	a0,a5
	lw	ra,44(sp)
	.cfi_restore 1
	lw	s0,40(sp)
	.cfi_restore 8
	.cfi_def_cfa 2, 48
	addi	sp,sp,48
	.cfi_def_cfa_offset 0
	jr	ra
	.cfi_endproc
.LFE222:
	.size	__metal_driver_sifive_gpio0_output, .-__metal_driver_sifive_gpio0_output
	.section	.text.__metal_driver_sifive_gpio0_disable_output,"ax",@progbits
	.align	1
	.globl	__metal_driver_sifive_gpio0_disable_output
	.type	__metal_driver_sifive_gpio0_disable_output, @function
__metal_driver_sifive_gpio0_disable_output:
.LFB223:
	.loc 2 47 61
	.cfi_startproc
	addi	sp,sp,-48
	.cfi_def_cfa_offset 48
	sw	ra,44(sp)
	sw	s0,40(sp)
	.cfi_offset 1, -4
	.cfi_offset 8, -8
	addi	s0,sp,48
	.cfi_def_cfa 8, 0
	sw	a0,-36(s0)
	sw	a1,-40(s0)
	.loc 2 48 17
	lw	a0,-36(s0)
	call	__metal_driver_sifive_gpio0_base
	mv	a5,a0
	.loc 2 48 10
	sw	a5,-20(s0)
	.loc 2 51 66
	lw	a5,-20(s0)
	addi	a5,a5,8
	lw	a5,0(a5)
	.loc 2 51 69
	lw	a4,-40(s0)
	not	a4,a4
	mv	a3,a4
	.loc 2 51 66
	lw	a4,-20(s0)
	addi	a4,a4,8
	and	a5,a5,a3
	sw	a5,0(a4)
	.loc 2 53 12
	li	a5,0
	.loc 2 54 1
	mv	a0,a5
	lw	ra,44(sp)
	.cfi_restore 1
	lw	s0,40(sp)
	.cfi_restore 8
	.cfi_def_cfa 2, 48
	addi	sp,sp,48
	.cfi_def_cfa_offset 0
	jr	ra
	.cfi_endproc
.LFE223:
	.size	__metal_driver_sifive_gpio0_disable_output, .-__metal_driver_sifive_gpio0_disable_output
	.section	.text.__metal_driver_sifive_gpio0_enable_output,"ax",@progbits
	.align	1
	.globl	__metal_driver_sifive_gpio0_enable_output
	.type	__metal_driver_sifive_gpio0_enable_output, @function
__metal_driver_sifive_gpio0_enable_output:
.LFB224:
	.loc 2 57 60
	.cfi_startproc
	addi	sp,sp,-48
	.cfi_def_cfa_offset 48
	sw	ra,44(sp)
	sw	s0,40(sp)
	.cfi_offset 1, -4
	.cfi_offset 8, -8
	addi	s0,sp,48
	.cfi_def_cfa 8, 0
	sw	a0,-36(s0)
	sw	a1,-40(s0)
	.loc 2 58 17
	lw	a0,-36(s0)
	call	__metal_driver_sifive_gpio0_base
	mv	a5,a0
	.loc 2 58 10
	sw	a5,-20(s0)
	.loc 2 61 66
	lw	a5,-20(s0)
	addi	a5,a5,8
	lw	a4,0(a5)
	lw	a5,-40(s0)
	lw	a3,-20(s0)
	addi	a3,a3,8
	or	a5,a4,a5
	sw	a5,0(a3)
	.loc 2 63 12
	li	a5,0
	.loc 2 64 1
	mv	a0,a5
	lw	ra,44(sp)
	.cfi_restore 1
	lw	s0,40(sp)
	.cfi_restore 8
	.cfi_def_cfa 2, 48
	addi	sp,sp,48
	.cfi_def_cfa_offset 0
	jr	ra
	.cfi_endproc
.LFE224:
	.size	__metal_driver_sifive_gpio0_enable_output, .-__metal_driver_sifive_gpio0_enable_output
	.section	.text.__metal_driver_sifive_gpio0_output_set,"ax",@progbits
	.align	1
	.globl	__metal_driver_sifive_gpio0_output_set
	.type	__metal_driver_sifive_gpio0_output_set, @function
__metal_driver_sifive_gpio0_output_set:
.LFB225:
	.loc 2 67 56
	.cfi_startproc
	addi	sp,sp,-48
	.cfi_def_cfa_offset 48
	sw	ra,44(sp)
	sw	s0,40(sp)
	.cfi_offset 1, -4
	.cfi_offset 8, -8
	addi	s0,sp,48
	.cfi_def_cfa 8, 0
	sw	a0,-36(s0)
	sw	a1,-40(s0)
	.loc 2 68 17
	lw	a0,-36(s0)
	call	__metal_driver_sifive_gpio0_base
	mv	a5,a0
	.loc 2 68 10
	sw	a5,-20(s0)
	.loc 2 70 99
	lw	a5,-20(s0)
	addi	a5,a5,12
	lw	a4,0(a5)
	lw	a5,-40(s0)
	lw	a3,-20(s0)
	addi	a3,a3,12
	or	a5,a4,a5
	sw	a5,0(a3)
	.loc 2 73 12
	li	a5,0
	.loc 2 74 1
	mv	a0,a5
	lw	ra,44(sp)
	.cfi_restore 1
	lw	s0,40(sp)
	.cfi_restore 8
	.cfi_def_cfa 2, 48
	addi	sp,sp,48
	.cfi_def_cfa_offset 0
	jr	ra
	.cfi_endproc
.LFE225:
	.size	__metal_driver_sifive_gpio0_output_set, .-__metal_driver_sifive_gpio0_output_set
	.section	.text.__metal_driver_sifive_gpio0_output_clear,"ax",@progbits
	.align	1
	.globl	__metal_driver_sifive_gpio0_output_clear
	.type	__metal_driver_sifive_gpio0_output_clear, @function
__metal_driver_sifive_gpio0_output_clear:
.LFB226:
	.loc 2 77 58
	.cfi_startproc
	addi	sp,sp,-48
	.cfi_def_cfa_offset 48
	sw	ra,44(sp)
	sw	s0,40(sp)
	.cfi_offset 1, -4
	.cfi_offset 8, -8
	addi	s0,sp,48
	.cfi_def_cfa 8, 0
	sw	a0,-36(s0)
	sw	a1,-40(s0)
	.loc 2 78 17
	lw	a0,-36(s0)
	call	__metal_driver_sifive_gpio0_base
	mv	a5,a0
	.loc 2 78 10
	sw	a5,-20(s0)
	.loc 2 80 99
	lw	a5,-20(s0)
	addi	a5,a5,12
	lw	a5,0(a5)
	.loc 2 81 9
	lw	a4,-40(s0)
	not	a4,a4
	mv	a3,a4
	.loc 2 80 99
	lw	a4,-20(s0)
	addi	a4,a4,12
	and	a5,a5,a3
	sw	a5,0(a4)
	.loc 2 83 12
	li	a5,0
	.loc 2 84 1
	mv	a0,a5
	lw	ra,44(sp)
	.cfi_restore 1
	lw	s0,40(sp)
	.cfi_restore 8
	.cfi_def_cfa 2, 48
	addi	sp,sp,48
	.cfi_def_cfa_offset 0
	jr	ra
	.cfi_endproc
.LFE226:
	.size	__metal_driver_sifive_gpio0_output_clear, .-__metal_driver_sifive_gpio0_output_clear
	.section	.text.__metal_driver_sifive_gpio0_output_toggle,"ax",@progbits
	.align	1
	.globl	__metal_driver_sifive_gpio0_output_toggle
	.type	__metal_driver_sifive_gpio0_output_toggle, @function
__metal_driver_sifive_gpio0_output_toggle:
.LFB227:
	.loc 2 87 59
	.cfi_startproc
	addi	sp,sp,-48
	.cfi_def_cfa_offset 48
	sw	ra,44(sp)
	sw	s0,40(sp)
	.cfi_offset 1, -4
	.cfi_offset 8, -8
	addi	s0,sp,48
	.cfi_def_cfa 8, 0
	sw	a0,-36(s0)
	sw	a1,-40(s0)
	.loc 2 88 17
	lw	a0,-36(s0)
	call	__metal_driver_sifive_gpio0_base
	mv	a5,a0
	.loc 2 88 10
	sw	a5,-20(s0)
	.loc 2 91 93
	lw	a5,-20(s0)
	addi	a5,a5,12
	.loc 2 91 10
	lw	a4,0(a5)
	.loc 2 92 65
	lw	a5,-40(s0)
	.loc 2 90 89
	lw	a3,-20(s0)
	addi	a3,a3,12
	.loc 2 92 65
	xor	a5,a4,a5
	.loc 2 90 99
	sw	a5,0(a3)
	.loc 2 95 12
	li	a5,0
	.loc 2 96 1
	mv	a0,a5
	lw	ra,44(sp)
	.cfi_restore 1
	lw	s0,40(sp)
	.cfi_restore 8
	.cfi_def_cfa 2, 48
	addi	sp,sp,48
	.cfi_def_cfa_offset 0
	jr	ra
	.cfi_endproc
.LFE227:
	.size	__metal_driver_sifive_gpio0_output_toggle, .-__metal_driver_sifive_gpio0_output_toggle
	.section	.text.__metal_driver_sifive_gpio0_enable_io,"ax",@progbits
	.align	1
	.globl	__metal_driver_sifive_gpio0_enable_io
	.type	__metal_driver_sifive_gpio0_enable_io, @function
__metal_driver_sifive_gpio0_enable_io:
.LFB228:
	.loc 2 99 54
	.cfi_startproc
	addi	sp,sp,-48
	.cfi_def_cfa_offset 48
	sw	ra,44(sp)
	sw	s0,40(sp)
	.cfi_offset 1, -4
	.cfi_offset 8, -8
	addi	s0,sp,48
	.cfi_def_cfa 8, 0
	sw	a0,-36(s0)
	sw	a1,-40(s0)
	sw	a2,-44(s0)
	.loc 2 100 17
	lw	a0,-36(s0)
	call	__metal_driver_sifive_gpio0_base
	mv	a5,a0
	.loc 2 100 10
	sw	a5,-20(s0)
	.loc 2 103 64
	lw	a5,-20(s0)
	addi	a5,a5,60
	lw	a4,0(a5)
	lw	a5,-40(s0)
	lw	a3,-20(s0)
	addi	a3,a3,60
	or	a5,a4,a5
	sw	a5,0(a3)
	.loc 2 104 99
	lw	a5,-20(s0)
	addi	a5,a5,56
	lw	a4,0(a5)
	lw	a5,-44(s0)
	lw	a3,-20(s0)
	addi	a3,a3,56
	or	a5,a4,a5
	sw	a5,0(a3)
	.loc 2 107 12
	li	a5,0
	.loc 2 108 1
	mv	a0,a5
	lw	ra,44(sp)
	.cfi_restore 1
	lw	s0,40(sp)
	.cfi_restore 8
	.cfi_def_cfa 2, 48
	addi	sp,sp,48
	.cfi_def_cfa_offset 0
	jr	ra
	.cfi_endproc
.LFE228:
	.size	__metal_driver_sifive_gpio0_enable_io, .-__metal_driver_sifive_gpio0_enable_io
	.section	.text.__metal_driver_sifive_gpio0_disable_io,"ax",@progbits
	.align	1
	.globl	__metal_driver_sifive_gpio0_disable_io
	.type	__metal_driver_sifive_gpio0_disable_io, @function
__metal_driver_sifive_gpio0_disable_io:
.LFB229:
	.loc 2 111 57
	.cfi_startproc
	addi	sp,sp,-48
	.cfi_def_cfa_offset 48
	sw	ra,44(sp)
	sw	s0,40(sp)
	.cfi_offset 1, -4
	.cfi_offset 8, -8
	addi	s0,sp,48
	.cfi_def_cfa 8, 0
	sw	a0,-36(s0)
	sw	a1,-40(s0)
	.loc 2 112 17
	lw	a0,-36(s0)
	call	__metal_driver_sifive_gpio0_base
	mv	a5,a0
	.loc 2 112 10
	sw	a5,-20(s0)
	.loc 2 114 99
	lw	a5,-20(s0)
	addi	a5,a5,56
	lw	a5,0(a5)
	.loc 2 115 9
	lw	a4,-40(s0)
	not	a4,a4
	mv	a3,a4
	.loc 2 114 99
	lw	a4,-20(s0)
	addi	a4,a4,56
	and	a5,a5,a3
	sw	a5,0(a4)
	.loc 2 117 12
	li	a5,0
	.loc 2 118 1
	mv	a0,a5
	lw	ra,44(sp)
	.cfi_restore 1
	lw	s0,40(sp)
	.cfi_restore 8
	.cfi_def_cfa 2, 48
	addi	sp,sp,48
	.cfi_def_cfa_offset 0
	jr	ra
	.cfi_endproc
.LFE229:
	.size	__metal_driver_sifive_gpio0_disable_io, .-__metal_driver_sifive_gpio0_disable_io
	.section	.text.__metal_driver_sifive_gpio0_config_int,"ax",@progbits
	.align	1
	.globl	__metal_driver_sifive_gpio0_config_int
	.type	__metal_driver_sifive_gpio0_config_int, @function
__metal_driver_sifive_gpio0_config_int:
.LFB230:
	.loc 2 121 72
	.cfi_startproc
	addi	sp,sp,-48
	.cfi_def_cfa_offset 48
	sw	ra,44(sp)
	sw	s0,40(sp)
	.cfi_offset 1, -4
	.cfi_offset 8, -8
	addi	s0,sp,48
	.cfi_def_cfa 8, 0
	sw	a0,-36(s0)
	sw	a1,-40(s0)
	sw	a2,-44(s0)
	.loc 2 122 17
	lw	a0,-36(s0)
	call	__metal_driver_sifive_gpio0_base
	mv	a5,a0
	.loc 2 122 10
	sw	a5,-20(s0)
	lw	a4,-44(s0)
	li	a5,7
	bgtu	a4,a5,.L64
	lw	a5,-44(s0)
	slli	a4,a5,2
	lui	a5,%hi(.L66)
	addi	a5,a5,%lo(.L66)
	add	a5,a4,a5
	lw	a5,0(a5)
	jr	a5
	.section	.rodata.__metal_driver_sifive_gpio0_config_int,"a",@progbits
	.align	2
	.align	2
.L66:
	.word	.L73
	.word	.L72
	.word	.L71
	.word	.L70
	.word	.L69
	.word	.L68
	.word	.L67
	.word	.L65
	.section	.text.__metal_driver_sifive_gpio0_config_int
.L73:
	.loc 2 127 68
	lw	a5,-20(s0)
	addi	a5,a5,24
	lw	a5,0(a5)
	.loc 2 127 71
	lw	a4,-40(s0)
	not	a4,a4
	mv	a3,a4
	.loc 2 127 68
	lw	a4,-20(s0)
	addi	a4,a4,24
	and	a5,a5,a3
	sw	a5,0(a4)
	.loc 2 129 68
	lw	a5,-20(s0)
	addi	a5,a5,32
	lw	a5,0(a5)
	.loc 2 129 71
	lw	a4,-40(s0)
	not	a4,a4
	mv	a3,a4
	.loc 2 129 68
	lw	a4,-20(s0)
	addi	a4,a4,32
	and	a5,a5,a3
	sw	a5,0(a4)
	.loc 2 131 68
	lw	a5,-20(s0)
	addi	a5,a5,40
	lw	a5,0(a5)
	.loc 2 131 71
	lw	a4,-40(s0)
	not	a4,a4
	mv	a3,a4
	.loc 2 131 68
	lw	a4,-20(s0)
	addi	a4,a4,40
	and	a5,a5,a3
	sw	a5,0(a4)
	.loc 2 133 67
	lw	a5,-20(s0)
	addi	a5,a5,48
	lw	a5,0(a5)
	.loc 2 133 70
	lw	a4,-40(s0)
	not	a4,a4
	mv	a3,a4
	.loc 2 133 67
	lw	a4,-20(s0)
	addi	a4,a4,48
	and	a5,a5,a3
	sw	a5,0(a4)
	.loc 2 134 9
	j	.L64
.L72:
	.loc 2 137 68
	lw	a5,-20(s0)
	addi	a5,a5,24
	lw	a4,0(a5)
	lw	a5,-40(s0)
	lw	a3,-20(s0)
	addi	a3,a3,24
	or	a5,a4,a5
	sw	a5,0(a3)
	.loc 2 138 9
	j	.L64
.L71:
	.loc 2 141 68
	lw	a5,-20(s0)
	addi	a5,a5,32
	lw	a4,0(a5)
	lw	a5,-40(s0)
	lw	a3,-20(s0)
	addi	a3,a3,32
	or	a5,a4,a5
	sw	a5,0(a3)
	.loc 2 142 9
	j	.L64
.L70:
	.loc 2 145 68
	lw	a5,-20(s0)
	addi	a5,a5,24
	lw	a4,0(a5)
	lw	a5,-40(s0)
	lw	a3,-20(s0)
	addi	a3,a3,24
	or	a5,a4,a5
	sw	a5,0(a3)
	.loc 2 147 68
	lw	a5,-20(s0)
	addi	a5,a5,32
	lw	a4,0(a5)
	lw	a5,-40(s0)
	lw	a3,-20(s0)
	addi	a3,a3,32
	or	a5,a4,a5
	sw	a5,0(a3)
	.loc 2 148 9
	j	.L64
.L68:
	.loc 2 151 68
	lw	a5,-20(s0)
	addi	a5,a5,40
	lw	a4,0(a5)
	lw	a5,-40(s0)
	lw	a3,-20(s0)
	addi	a3,a3,40
	or	a5,a4,a5
	sw	a5,0(a3)
	.loc 2 152 9
	j	.L64
.L69:
	.loc 2 155 67
	lw	a5,-20(s0)
	addi	a5,a5,48
	lw	a4,0(a5)
	lw	a5,-40(s0)
	lw	a3,-20(s0)
	addi	a3,a3,48
	or	a5,a4,a5
	sw	a5,0(a3)
	.loc 2 156 9
	j	.L64
.L67:
	.loc 2 159 68
	lw	a5,-20(s0)
	addi	a5,a5,40
	lw	a4,0(a5)
	lw	a5,-40(s0)
	lw	a3,-20(s0)
	addi	a3,a3,40
	or	a5,a4,a5
	sw	a5,0(a3)
	.loc 2 161 67
	lw	a5,-20(s0)
	addi	a5,a5,48
	lw	a4,0(a5)
	lw	a5,-40(s0)
	lw	a3,-20(s0)
	addi	a3,a3,48
	or	a5,a4,a5
	sw	a5,0(a3)
	.loc 2 162 9
	j	.L64
.L65:
	.loc 2 165 68
	lw	a5,-20(s0)
	addi	a5,a5,24
	lw	a4,0(a5)
	lw	a5,-40(s0)
	lw	a3,-20(s0)
	addi	a3,a3,24
	or	a5,a4,a5
	sw	a5,0(a3)
	.loc 2 167 68
	lw	a5,-20(s0)
	addi	a5,a5,32
	lw	a4,0(a5)
	lw	a5,-40(s0)
	lw	a3,-20(s0)
	addi	a3,a3,32
	or	a5,a4,a5
	sw	a5,0(a3)
	.loc 2 169 68
	lw	a5,-20(s0)
	addi	a5,a5,40
	lw	a4,0(a5)
	lw	a5,-40(s0)
	lw	a3,-20(s0)
	addi	a3,a3,40
	or	a5,a4,a5
	sw	a5,0(a3)
	.loc 2 171 67
	lw	a5,-20(s0)
	addi	a5,a5,48
	lw	a4,0(a5)
	lw	a5,-40(s0)
	lw	a3,-20(s0)
	addi	a3,a3,48
	or	a5,a4,a5
	sw	a5,0(a3)
	.loc 2 172 9
	nop
.L64:
	.loc 2 174 12
	li	a5,0
	.loc 2 175 1
	mv	a0,a5
	lw	ra,44(sp)
	.cfi_restore 1
	lw	s0,40(sp)
	.cfi_restore 8
	.cfi_def_cfa 2, 48
	addi	sp,sp,48
	.cfi_def_cfa_offset 0
	jr	ra
	.cfi_endproc
.LFE230:
	.size	__metal_driver_sifive_gpio0_config_int, .-__metal_driver_sifive_gpio0_config_int
	.section	.text.__metal_driver_sifive_gpio0_clear_int,"ax",@progbits
	.align	1
	.globl	__metal_driver_sifive_gpio0_clear_int
	.type	__metal_driver_sifive_gpio0_clear_int, @function
__metal_driver_sifive_gpio0_clear_int:
.LFB231:
	.loc 2 178 58
	.cfi_startproc
	addi	sp,sp,-48
	.cfi_def_cfa_offset 48
	sw	ra,44(sp)
	sw	s0,40(sp)
	.cfi_offset 1, -4
	.cfi_offset 8, -8
	addi	s0,sp,48
	.cfi_def_cfa 8, 0
	sw	a0,-36(s0)
	sw	a1,-40(s0)
	sw	a2,-44(s0)
	.loc 2 179 17
	lw	a0,-36(s0)
	call	__metal_driver_sifive_gpio0_base
	mv	a5,a0
	.loc 2 179 10
	sw	a5,-20(s0)
	lw	a4,-44(s0)
	li	a5,7
	bgtu	a4,a5,.L76
	lw	a5,-44(s0)
	slli	a4,a5,2
	lui	a5,%hi(.L78)
	addi	a5,a5,%lo(.L78)
	add	a5,a4,a5
	lw	a5,0(a5)
	jr	a5
	.section	.rodata.__metal_driver_sifive_gpio0_clear_int,"a",@progbits
	.align	2
	.align	2
.L78:
	.word	.L76
	.word	.L84
	.word	.L83
	.word	.L82
	.word	.L81
	.word	.L80
	.word	.L79
	.word	.L77
	.section	.text.__metal_driver_sifive_gpio0_clear_int
.L84:
	.loc 2 184 68
	lw	a5,-20(s0)
	addi	a5,a5,28
	lw	a4,0(a5)
	lw	a5,-40(s0)
	lw	a3,-20(s0)
	addi	a3,a3,28
	or	a5,a4,a5
	sw	a5,0(a3)
	.loc 2 185 9
	j	.L76
.L83:
	.loc 2 188 68
	lw	a5,-20(s0)
	addi	a5,a5,36
	lw	a4,0(a5)
	lw	a5,-40(s0)
	lw	a3,-20(s0)
	addi	a3,a3,36
	or	a5,a4,a5
	sw	a5,0(a3)
	.loc 2 189 9
	j	.L76
.L82:
	.loc 2 192 68
	lw	a5,-20(s0)
	addi	a5,a5,28
	lw	a4,0(a5)
	lw	a5,-40(s0)
	lw	a3,-20(s0)
	addi	a3,a3,28
	or	a5,a4,a5
	sw	a5,0(a3)
	.loc 2 194 68
	lw	a5,-20(s0)
	addi	a5,a5,36
	lw	a4,0(a5)
	lw	a5,-40(s0)
	lw	a3,-20(s0)
	addi	a3,a3,36
	or	a5,a4,a5
	sw	a5,0(a3)
	.loc 2 195 9
	j	.L76
.L80:
	.loc 2 198 68
	lw	a5,-20(s0)
	addi	a5,a5,44
	lw	a4,0(a5)
	lw	a5,-40(s0)
	lw	a3,-20(s0)
	addi	a3,a3,44
	or	a5,a4,a5
	sw	a5,0(a3)
	.loc 2 199 9
	j	.L76
.L81:
	.loc 2 202 67
	lw	a5,-20(s0)
	addi	a5,a5,52
	lw	a4,0(a5)
	lw	a5,-40(s0)
	lw	a3,-20(s0)
	addi	a3,a3,52
	or	a5,a4,a5
	sw	a5,0(a3)
	.loc 2 203 9
	j	.L76
.L79:
	.loc 2 206 68
	lw	a5,-20(s0)
	addi	a5,a5,44
	lw	a4,0(a5)
	lw	a5,-40(s0)
	lw	a3,-20(s0)
	addi	a3,a3,44
	or	a5,a4,a5
	sw	a5,0(a3)
	.loc 2 208 67
	lw	a5,-20(s0)
	addi	a5,a5,52
	lw	a4,0(a5)
	lw	a5,-40(s0)
	lw	a3,-20(s0)
	addi	a3,a3,52
	or	a5,a4,a5
	sw	a5,0(a3)
	.loc 2 209 9
	j	.L76
.L77:
	.loc 2 212 68
	lw	a5,-20(s0)
	addi	a5,a5,28
	lw	a4,0(a5)
	lw	a5,-40(s0)
	lw	a3,-20(s0)
	addi	a3,a3,28
	or	a5,a4,a5
	sw	a5,0(a3)
	.loc 2 214 68
	lw	a5,-20(s0)
	addi	a5,a5,36
	lw	a4,0(a5)
	lw	a5,-40(s0)
	lw	a3,-20(s0)
	addi	a3,a3,36
	or	a5,a4,a5
	sw	a5,0(a3)
	.loc 2 216 68
	lw	a5,-20(s0)
	addi	a5,a5,44
	lw	a4,0(a5)
	lw	a5,-40(s0)
	lw	a3,-20(s0)
	addi	a3,a3,44
	or	a5,a4,a5
	sw	a5,0(a3)
	.loc 2 218 67
	lw	a5,-20(s0)
	addi	a5,a5,52
	lw	a4,0(a5)
	lw	a5,-40(s0)
	lw	a3,-20(s0)
	addi	a3,a3,52
	or	a5,a4,a5
	sw	a5,0(a3)
	.loc 2 219 9
	nop
.L76:
	.loc 2 221 12
	li	a5,0
	.loc 2 222 1
	mv	a0,a5
	lw	ra,44(sp)
	.cfi_restore 1
	lw	s0,40(sp)
	.cfi_restore 8
	.cfi_def_cfa 2, 48
	addi	sp,sp,48
	.cfi_def_cfa_offset 0
	jr	ra
	.cfi_endproc
.LFE231:
	.size	__metal_driver_sifive_gpio0_clear_int, .-__metal_driver_sifive_gpio0_clear_int
	.section	.text.__metal_driver_gpio_interrupt_controller,"ax",@progbits
	.align	1
	.globl	__metal_driver_gpio_interrupt_controller
	.type	__metal_driver_gpio_interrupt_controller, @function
__metal_driver_gpio_interrupt_controller:
.LFB232:
	.loc 2 225 67
	.cfi_startproc
	addi	sp,sp,-32
	.cfi_def_cfa_offset 32
	sw	ra,28(sp)
	sw	s0,24(sp)
	.cfi_offset 1, -4
	.cfi_offset 8, -8
	addi	s0,sp,32
	.cfi_def_cfa 8, 0
	sw	a0,-20(s0)
	.loc 2 226 12
	lw	a0,-20(s0)
	call	__metal_driver_sifive_gpio0_interrupt_parent
	mv	a5,a0
	.loc 2 227 1
	mv	a0,a5
	lw	ra,28(sp)
	.cfi_restore 1
	lw	s0,24(sp)
	.cfi_restore 8
	.cfi_def_cfa 2, 32
	addi	sp,sp,32
	.cfi_def_cfa_offset 0
	jr	ra
	.cfi_endproc
.LFE232:
	.size	__metal_driver_gpio_interrupt_controller, .-__metal_driver_gpio_interrupt_controller
	.section	.text.__metal_driver_gpio_get_interrupt_id,"ax",@progbits
	.align	1
	.globl	__metal_driver_gpio_get_interrupt_id
	.type	__metal_driver_gpio_get_interrupt_id, @function
__metal_driver_gpio_get_interrupt_id:
.LFB233:
	.loc 2 229 76
	.cfi_startproc
	addi	sp,sp,-48
	.cfi_def_cfa_offset 48
	sw	ra,44(sp)
	sw	s0,40(sp)
	.cfi_offset 1, -4
	.cfi_offset 8, -8
	addi	s0,sp,48
	.cfi_def_cfa 8, 0
	sw	a0,-36(s0)
	sw	a1,-40(s0)
	.loc 2 231 11
	lw	a1,-40(s0)
	lw	a0,-36(s0)
	call	__metal_driver_sifive_gpio0_interrupt_lines
	sw	a0,-20(s0)
	.loc 2 232 12
	lw	a5,-20(s0)
	.loc 2 233 1
	mv	a0,a5
	lw	ra,44(sp)
	.cfi_restore 1
	lw	s0,40(sp)
	.cfi_restore 8
	.cfi_def_cfa 2, 48
	addi	sp,sp,48
	.cfi_def_cfa_offset 0
	jr	ra
	.cfi_endproc
.LFE233:
	.size	__metal_driver_gpio_get_interrupt_id, .-__metal_driver_gpio_get_interrupt_id
	.globl	__metal_driver_vtable_sifive_gpio0
	.section	.rodata.__metal_driver_vtable_sifive_gpio0,"a"
	.align	2
	.type	__metal_driver_vtable_sifive_gpio0, @object
	.size	__metal_driver_vtable_sifive_gpio0, 60
__metal_driver_vtable_sifive_gpio0:
	.word	__metal_driver_sifive_gpio0_disable_input
	.word	__metal_driver_sifive_gpio0_enable_input
	.word	__metal_driver_sifive_gpio0_input
	.word	__metal_driver_sifive_gpio0_output
	.word	__metal_driver_sifive_gpio0_disable_output
	.word	__metal_driver_sifive_gpio0_enable_output
	.word	__metal_driver_sifive_gpio0_output_set
	.word	__metal_driver_sifive_gpio0_output_clear
	.word	__metal_driver_sifive_gpio0_output_toggle
	.word	__metal_driver_sifive_gpio0_enable_io
	.word	__metal_driver_sifive_gpio0_disable_io
	.word	__metal_driver_sifive_gpio0_config_int
	.word	__metal_driver_sifive_gpio0_clear_int
	.word	__metal_driver_gpio_interrupt_controller
	.word	__metal_driver_gpio_get_interrupt_id
	.text
.Letext0:
	.file 3 "/home/gra2p/Documents/uva_courses/rp1/tools/riscv64-unknown-elf-toolchain-10.2.0-2020.12.8-x86_64-linux-ubuntu14/lib/gcc/riscv64-unknown-elf/10.2.0/include/stddef.h"
	.file 4 "/home/gra2p/Documents/uva_courses/rp1/src/freedom-metal/metal/interrupt.h"
	.file 5 "/home/gra2p/Documents/uva_courses/rp1/src/freedom-metal/metal/gpio.h"
	.file 6 "/home/gra2p/Documents/uva_courses/rp1/src/freedom-metal/metal/drivers/sifive_gpio0.h"
	.file 7 "/home/gra2p/Documents/uva_courses/rp1/src/freedom-metal/metal/io.h"
	.file 8 "/home/gra2p/Documents/uva_courses/rp1/src/freedom-metal/metal/clock.h"
	.file 9 "/home/gra2p/Documents/uva_courses/rp1/tools/riscv64-unknown-elf-toolchain-10.2.0-2020.12.8-x86_64-linux-ubuntu14/riscv64-unknown-elf/include/machine/_default_types.h"
	.file 10 "/home/gra2p/Documents/uva_courses/rp1/tools/riscv64-unknown-elf-toolchain-10.2.0-2020.12.8-x86_64-linux-ubuntu14/riscv64-unknown-elf/include/sys/_stdint.h"
	.file 11 "/home/gra2p/Documents/uva_courses/rp1/src/freedom-metal/metal/memory.h"
	.file 12 "/home/gra2p/Documents/uva_courses/rp1/src/freedom-metal/metal/cpu.h"
	.file 13 "/home/gra2p/Documents/uva_courses/rp1/src/freedom-metal/metal/drivers/riscv_cpu.h"
	.file 14 "/home/gra2p/Documents/uva_courses/rp1/src/freedom-metal/metal/drivers/riscv_plic0.h"
	.file 15 "/home/gra2p/Documents/uva_courses/rp1/src/freedom-metal/metal/led.h"
	.file 16 "/home/gra2p/Documents/uva_courses/rp1/src/freedom-metal/metal/drivers/sifive_gpio-leds.h"
	.file 17 "/home/gra2p/Documents/uva_courses/rp1/src/freedom-metal/metal/i2c.h"
	.file 18 "/home/gra2p/Documents/uva_courses/rp1/src/freedom-metal/metal/drivers/sifive_i2c0.h"
	.file 19 "/home/gra2p/Documents/uva_courses/rp1/src/freedom-metal/metal/pwm.h"
	.file 20 "/home/gra2p/Documents/uva_courses/rp1/src/freedom-metal/metal/drivers/sifive_pwm0.h"
	.file 21 "/home/gra2p/Documents/uva_courses/rp1/src/freedom-metal/metal/rtc.h"
	.file 22 "/home/gra2p/Documents/uva_courses/rp1/src/freedom-metal/metal/drivers/sifive_rtc0.h"
	.file 23 "/home/gra2p/Documents/uva_courses/rp1/src/freedom-metal/metal/spi.h"
	.file 24 "/home/gra2p/Documents/uva_courses/rp1/src/freedom-metal/metal/drivers/sifive_spi0.h"
	.file 25 "/home/gra2p/Documents/uva_courses/rp1/src/freedom-metal/metal/uart.h"
	.file 26 "/home/gra2p/Documents/uva_courses/rp1/src/freedom-metal/metal/drivers/sifive_uart0.h"
	.file 27 "/home/gra2p/Documents/uva_courses/rp1/src/freedom-metal/metal/watchdog.h"
	.file 28 "/home/gra2p/Documents/uva_courses/rp1/src/freedom-metal/metal/drivers/sifive_wdog0.h"