	.file	"sifive_fe310-g000_prci.c"
	.option nopic
	.attribute arch, "rv32i2p0_m2p0_a2p0_c2p0"
	.attribute unaligned_access, 0
	.attribute stack_align, 16
	.text
.Ltext0:
	.cfi_sections	.debug_frame
	.section	.text.__metal_driver_sifive_fe310_g000_prci_base,"ax",@progbits
	.align	1
	.type	__metal_driver_sifive_fe310_g000_prci_base, @function
__metal_driver_sifive_fe310_g000_prci_base:
.LFB216:
	.file 1 "./metal/machine.h"
	.loc 1 1370 1
	.cfi_startproc
	addi	sp,sp,-16
	.cfi_def_cfa_offset 16
	sw	s0,12(sp)
	.cfi_offset 8, -4
	addi	s0,sp,16
	.cfi_def_cfa 8, 0
	.loc 1 1371 10
	li	a5,268468224
	.loc 1 1372 1
	mv	a0,a5
	lw	s0,12(sp)
	.cfi_restore 8
	.cfi_def_cfa 2, 16
	addi	sp,sp,16
	.cfi_def_cfa_offset 0
	jr	ra
	.cfi_endproc
.LFE216:
	.size	__metal_driver_sifive_fe310_g000_prci_base, .-__metal_driver_sifive_fe310_g000_prci_base
	.weak	__metal_memory_table
	.section	.data.__metal_memory_table,"aw"
	.align	2
	.type	__metal_memory_table, @object
	.size	__metal_memory_table, 12
__metal_memory_table:
	.word	__metal_dt_mem_dtim_80000000
	.word	__metal_dt_mem_itim_8000000
	.word	__metal_dt_mem_spi_10014000
	.weak	__metal_cpu_table
	.section	.sdata.__metal_cpu_table,"aw"
	.align	2
	.type	__metal_cpu_table, @object
	.size	__metal_cpu_table, 4
__metal_cpu_table:
	.word	__metal_dt_cpu_0
	.weak	__metal_gpio_table
	.section	.sdata.__metal_gpio_table,"aw"
	.align	2
	.type	__metal_gpio_table, @object
	.size	__metal_gpio_table, 4
__metal_gpio_table:
	.word	__metal_dt_gpio_10012000
	.weak	__metal_button_table
	.section	.sbss.__metal_button_table,"aw",@nobits
	.align	2
	.type	__metal_button_table, @object
	.size	__metal_button_table, 4
__metal_button_table:
	.zero	4
	.weak	__metal_led_table
	.section	.data.__metal_led_table,"aw"
	.align	2
	.type	__metal_led_table, @object
	.size	__metal_led_table, 12
__metal_led_table:
	.word	__metal_dt_led_0
	.word	__metal_dt_led_1
	.word	__metal_dt_led_2
	.weak	__metal_switch_table
	.section	.sbss.__metal_switch_table,"aw",@nobits
	.align	2
	.type	__metal_switch_table, @object
	.size	__metal_switch_table, 4
__metal_switch_table:
	.zero	4
	.weak	__metal_i2c_table
	.section	.sdata.__metal_i2c_table,"aw"
	.align	2
	.type	__metal_i2c_table, @object
	.size	__metal_i2c_table, 4
__metal_i2c_table:
	.word	__metal_dt_i2c_10016000
	.weak	__metal_pwm_table
	.section	.data.__metal_pwm_table,"aw"
	.align	2
	.type	__metal_pwm_table, @object
	.size	__metal_pwm_table, 12
__metal_pwm_table:
	.word	__metal_dt_pwm_10015000
	.word	__metal_dt_pwm_10025000
	.word	__metal_dt_pwm_10035000
	.weak	__metal_rtc_table
	.section	.sdata.__metal_rtc_table,"aw"
	.align	2
	.type	__metal_rtc_table, @object
	.size	__metal_rtc_table, 4
__metal_rtc_table:
	.word	__metal_dt_rtc_10000000
	.weak	__metal_spi_table
	.section	.data.__metal_spi_table,"aw"
	.align	2
	.type	__metal_spi_table, @object
	.size	__metal_spi_table, 12
__metal_spi_table:
	.word	__metal_dt_spi_10014000
	.word	__metal_dt_spi_10024000
	.word	__metal_dt_spi_10034000
	.weak	__metal_uart_table
	.section	.sdata.__metal_uart_table,"aw"
	.align	2
	.type	__metal_uart_table, @object
	.size	__metal_uart_table, 8
__metal_uart_table:
	.word	__metal_dt_serial_10013000
	.word	__metal_dt_serial_10023000
	.weak	__metal_simuart_table
	.section	.sbss.__metal_simuart_table,"aw",@nobits
	.align	2
	.type	__metal_simuart_table, @object
	.size	__metal_simuart_table, 4
__metal_simuart_table:
	.zero	4
	.weak	__metal_wdog_table
	.section	.sdata.__metal_wdog_table,"aw"
	.align	2
	.type	__metal_wdog_table, @object
	.size	__metal_wdog_table, 4
__metal_wdog_table:
	.word	__metal_dt_aon_10000000
	.section	.text.__metal_driver_sifive_fe310_g000_prci_get_reg,"ax",@progbits
	.align	1
	.globl	__metal_driver_sifive_fe310_g000_prci_get_reg
	.type	__metal_driver_sifive_fe310_g000_prci_get_reg, @function
__metal_driver_sifive_fe310_g000_prci_get_reg:
.LFB219:
	.file 2 "/home/gra2p/Documents/uva_courses/rp1/src/freedom-metal/src/drivers/sifive_fe310-g000_prci.c"
	.loc 2 12 76
	.cfi_startproc
	addi	sp,sp,-48
	.cfi_def_cfa_offset 48
	sw	ra,44(sp)
	sw	s0,40(sp)
	.cfi_offset 1, -4
	.cfi_offset 8, -8
	addi	s0,sp,48
	.cfi_def_cfa 8, 0
	sw	a0,-36(s0)
	sw	a1,-40(s0)
	.loc 2 13 26
	call	__metal_driver_sifive_fe310_g000_prci_base
	mv	a5,a0
	.loc 2 13 19
	sw	a5,-20(s0)
	.loc 2 14 98
	lw	a4,-40(s0)
	lw	a5,-20(s0)
	add	a5,a4,a5
	.loc 2 14 13
	lw	a5,0(a5)
	.loc 2 15 1
	mv	a0,a5
	lw	ra,44(sp)
	.cfi_restore 1
	lw	s0,40(sp)
	.cfi_restore 8
	.cfi_def_cfa 2, 48
	addi	sp,sp,48
	.cfi_def_cfa_offset 0
	jr	ra
	.cfi_endproc
.LFE219:
	.size	__metal_driver_sifive_fe310_g000_prci_get_reg, .-__metal_driver_sifive_fe310_g000_prci_get_reg
	.section	.text.__metal_driver_sifive_fe310_g000_prci_set_reg,"ax",@progbits
	.align	1
	.globl	__metal_driver_sifive_fe310_g000_prci_set_reg
	.type	__metal_driver_sifive_fe310_g000_prci_set_reg, @function
__metal_driver_sifive_fe310_g000_prci_set_reg:
.LFB220:
	.loc 2 19 17
	.cfi_startproc
	addi	sp,sp,-48
	.cfi_def_cfa_offset 48
	sw	ra,44(sp)
	sw	s0,40(sp)
	.cfi_offset 1, -4
	.cfi_offset 8, -8
	addi	s0,sp,48
	.cfi_def_cfa 8, 0
	sw	a0,-36(s0)
	sw	a1,-40(s0)
	sw	a2,-44(s0)
	.loc 2 20 26
	call	__metal_driver_sifive_fe310_g000_prci_base
	mv	a5,a0
	.loc 2 20 19
	sw	a5,-20(s0)
	.loc 2 21 98
	lw	a4,-40(s0)
	lw	a5,-20(s0)
	add	a5,a4,a5
	.loc 2 21 14
	mv	a4,a5
	.loc 2 21 110
	lw	a5,-44(s0)
	sw	a5,0(a4)
	.loc 2 22 1
	mv	a0,a5
	lw	ra,44(sp)
	.cfi_restore 1
	lw	s0,40(sp)
	.cfi_restore 8
	.cfi_def_cfa 2, 48
	addi	sp,sp,48
	.cfi_def_cfa_offset 0
	jr	ra
	.cfi_endproc
.LFE220:
	.size	__metal_driver_sifive_fe310_g000_prci_set_reg, .-__metal_driver_sifive_fe310_g000_prci_set_reg
	.globl	__metal_driver_vtable_sifive_fe310_g000_prci
	.section	.srodata.__metal_driver_vtable_sifive_fe310_g000_prci,"a"
	.align	2
	.type	__metal_driver_vtable_sifive_fe310_g000_prci, @object
	.size	__metal_driver_vtable_sifive_fe310_g000_prci, 8
__metal_driver_vtable_sifive_fe310_g000_prci:
	.word	__metal_driver_sifive_fe310_g000_prci_get_reg
	.word	__metal_driver_sifive_fe310_g000_prci_set_reg
	.text
.Letext0:
	.file 3 "/home/gra2p/Documents/uva_courses/rp1/src/freedom-metal/metal/drivers/sifive_fe310-g000_prci.h"
	.file 4 "/home/gra2p/Documents/uva_courses/rp1/src/freedom-metal/metal/io.h"
	.file 5 "/home/gra2p/Documents/uva_courses/rp1/tools/riscv64-unknown-elf-toolchain-10.2.0-2020.12.8-x86_64-linux-ubuntu14/lib/gcc/riscv64-unknown-elf/10.2.0/include/stddef.h"
	.file 6 "/home/gra2p/Documents/uva_courses/rp1/src/freedom-metal/metal/clock.h"
	.file 7 "/home/gra2p/Documents/uva_courses/rp1/tools/riscv64-unknown-elf-toolchain-10.2.0-2020.12.8-x86_64-linux-ubuntu14/riscv64-unknown-elf/include/machine/_default_types.h"
	.file 8 "/home/gra2p/Documents/uva_courses/rp1/tools/riscv64-unknown-elf-toolchain-10.2.0-2020.12.8-x86_64-linux-ubuntu14/riscv64-unknown-elf/include/sys/_stdint.h"
	.file 9 "/home/gra2p/Documents/uva_courses/rp1/src/freedom-metal/metal/memory.h"
	.file 10 "/home/gra2p/Documents/uva_courses/rp1/src/freedom-metal/metal/interrupt.h"
	.file 11 "/home/gra2p/Documents/uva_courses/rp1/src/freedom-metal/metal/cpu.h"
	.file 12 "/home/gra2p/Documents/uva_courses/rp1/src/freedom-metal/metal/drivers/riscv_cpu.h"
	.file 13 "/home/gra2p/Documents/uva_courses/rp1/src/freedom-metal/metal/gpio.h"
	.file 14 "/home/gra2p/Documents/uva_courses/rp1/src/freedom-metal/metal/drivers/sifive_gpio0.h"
	.file 15 "/home/gra2p/Documents/uva_courses/rp1/src/freedom-metal/metal/led.h"
	.file 16 "/home/gra2p/Documents/uva_courses/rp1/src/freedom-metal/metal/drivers/sifive_gpio-leds.h"
	.file 17 "/home/gra2p/Documents/uva_courses/rp1/src/freedom-metal/metal/i2c.h"
	.file 18 "/home/gra2p/Documents/uva_courses/rp1/src/freedom-metal/metal/drivers/sifive_i2c0.h"
	.file 19 "/home/gra2p/Documents/uva_courses/rp1/src/freedom-metal/metal/pwm.h"
	.file 20 "/home/gra2p/Documents/uva_courses/rp1/src/freedom-metal/metal/drivers/sifive_pwm0.h"
	.file 21 "/home/gra2p/Documents/uva_courses/rp1/src/freedom-metal/metal/rtc.h"
	.file 22 "/home/gra2p/Documents/uva_courses/rp1/src/freedom-metal/metal/drivers/sifive_rtc0.h"
	.file 23 "/home/gra2p/Documents/uva_courses/rp1/src/freedom-metal/metal/spi.h"
	.file 24 "/home/gra2p/Documents/uva_courses/rp1/src/freedom-metal/metal/drivers/sifive_spi0.h"
	.file 25 "/home/gra2p/Documents/uva_courses/rp1/src/freedom-metal/metal/uart.h"
	.file 26 "/home/gra2p/Documents/uva_courses/rp1/src/freedom-metal/metal/drivers/sifive_uart0.h"
	.file 27 "/home/gra2p/Documents/uva_courses/rp1/src/freedom-metal/metal/watchdog.h"
	.file 28 "/home/gra2p/Documents/uva_courses/rp1/src/freedom-metal/metal/drivers/sifive_wdog0.h"