	.file	"sifive_uart0.c"
	.option nopic
	.attribute arch, "rv32i2p0_m2p0_a2p0_c2p0"
	.attribute unaligned_access, 0
	.attribute stack_align, 16
	.text
.Ltext0:
	.cfi_sections	.debug_frame
	.section	.text.__metal_driver_sifive_uart0_control_base,"ax",@progbits
	.align	1
	.type	__metal_driver_sifive_uart0_control_base, @function
__metal_driver_sifive_uart0_control_base:
.LFB184:
	.file 1 "./metal/machine.h"
	.loc 1 1072 1
	.cfi_startproc
	addi	sp,sp,-32
	.cfi_def_cfa_offset 32
	sw	s0,28(sp)
	.cfi_offset 8, -4
	addi	s0,sp,32
	.cfi_def_cfa 8, 0
	sw	a0,-20(s0)
	.loc 1 1073 6
	lw	a4,-20(s0)
	.loc 1 1073 25
	lui	a5,%hi(__metal_dt_serial_10013000)
	addi	a5,a5,%lo(__metal_dt_serial_10013000)
	.loc 1 1073 5
	bne	a4,a5,.L2
	.loc 1 1074 10
	li	a5,268513280
	j	.L3
.L2:
	.loc 1 1076 11
	lw	a4,-20(s0)
	.loc 1 1076 30
	lui	a5,%hi(__metal_dt_serial_10023000)
	addi	a5,a5,%lo(__metal_dt_serial_10023000)
	.loc 1 1076 10
	bne	a4,a5,.L4
	.loc 1 1077 10
	li	a5,268578816
	j	.L3
.L4:
	.loc 1 1080 10
	li	a5,0
.L3:
	.loc 1 1082 1
	mv	a0,a5
	lw	s0,28(sp)
	.cfi_restore 8
	.cfi_def_cfa 2, 32
	addi	sp,sp,32
	.cfi_def_cfa_offset 0
	jr	ra
	.cfi_endproc
.LFE184:
	.size	__metal_driver_sifive_uart0_control_base, .-__metal_driver_sifive_uart0_control_base
	.section	.text.__metal_driver_sifive_uart0_interrupt_parent,"ax",@progbits
	.align	1
	.type	__metal_driver_sifive_uart0_interrupt_parent, @function
__metal_driver_sifive_uart0_interrupt_parent:
.LFB187:
	.loc 1 1111 1
	.cfi_startproc
	addi	sp,sp,-32
	.cfi_def_cfa_offset 32
	sw	s0,28(sp)
	.cfi_offset 8, -4
	addi	s0,sp,32
	.cfi_def_cfa 8, 0
	sw	a0,-20(s0)
	.loc 1 1112 6
	lw	a4,-20(s0)
	.loc 1 1112 25
	lui	a5,%hi(__metal_dt_serial_10013000)
	addi	a5,a5,%lo(__metal_dt_serial_10013000)
	.loc 1 1112 5
	bne	a4,a5,.L6
	.loc 1 1113 10
	lui	a5,%hi(__metal_dt_interrupt_controller_c000000)
	addi	a5,a5,%lo(__metal_dt_interrupt_controller_c000000)
	j	.L7
.L6:
	.loc 1 1115 11
	lw	a4,-20(s0)
	.loc 1 1115 30
	lui	a5,%hi(__metal_dt_serial_10023000)
	addi	a5,a5,%lo(__metal_dt_serial_10023000)
	.loc 1 1115 10
	bne	a4,a5,.L8
	.loc 1 1116 10
	lui	a5,%hi(__metal_dt_interrupt_controller_c000000)
	addi	a5,a5,%lo(__metal_dt_interrupt_controller_c000000)
	j	.L7
.L8:
	.loc 1 1119 10
	li	a5,0
.L7:
	.loc 1 1121 1
	mv	a0,a5
	lw	s0,28(sp)
	.cfi_restore 8
	.cfi_def_cfa 2, 32
	addi	sp,sp,32
	.cfi_def_cfa_offset 0
	jr	ra
	.cfi_endproc
.LFE187:
	.size	__metal_driver_sifive_uart0_interrupt_parent, .-__metal_driver_sifive_uart0_interrupt_parent
	.section	.text.__metal_driver_sifive_uart0_interrupt_line,"ax",@progbits
	.align	1
	.type	__metal_driver_sifive_uart0_interrupt_line, @function
__metal_driver_sifive_uart0_interrupt_line:
.LFB188:
	.loc 1 1124 1
	.cfi_startproc
	addi	sp,sp,-32
	.cfi_def_cfa_offset 32
	sw	s0,28(sp)
	.cfi_offset 8, -4
	addi	s0,sp,32
	.cfi_def_cfa 8, 0
	sw	a0,-20(s0)
	.loc 1 1125 6
	lw	a4,-20(s0)
	.loc 1 1125 25
	lui	a5,%hi(__metal_dt_serial_10013000)
	addi	a5,a5,%lo(__metal_dt_serial_10013000)
	.loc 1 1125 5
	bne	a4,a5,.L10
	.loc 1 1126 10
	li	a5,3
	j	.L11
.L10:
	.loc 1 1128 11
	lw	a4,-20(s0)
	.loc 1 1128 30
	lui	a5,%hi(__metal_dt_serial_10023000)
	addi	a5,a5,%lo(__metal_dt_serial_10023000)
	.loc 1 1128 10
	bne	a4,a5,.L12
	.loc 1 1129 10
	li	a5,4
	j	.L11
.L12:
	.loc 1 1132 10
	li	a5,0
.L11:
	.loc 1 1134 1
	mv	a0,a5
	lw	s0,28(sp)
	.cfi_restore 8
	.cfi_def_cfa 2, 32
	addi	sp,sp,32
	.cfi_def_cfa_offset 0
	jr	ra
	.cfi_endproc
.LFE188:
	.size	__metal_driver_sifive_uart0_interrupt_line, .-__metal_driver_sifive_uart0_interrupt_line
	.section	.text.__metal_driver_sifive_uart0_clock,"ax",@progbits
	.align	1
	.type	__metal_driver_sifive_uart0_clock, @function
__metal_driver_sifive_uart0_clock:
.LFB189:
	.loc 1 1137 1
	.cfi_startproc
	addi	sp,sp,-32
	.cfi_def_cfa_offset 32
	sw	s0,28(sp)
	.cfi_offset 8, -4
	addi	s0,sp,32
	.cfi_def_cfa 8, 0
	sw	a0,-20(s0)
	.loc 1 1138 6
	lw	a4,-20(s0)
	.loc 1 1138 25
	lui	a5,%hi(__metal_dt_serial_10013000)
	addi	a5,a5,%lo(__metal_dt_serial_10013000)
	.loc 1 1138 5
	bne	a4,a5,.L14
	.loc 1 1139 10
	lui	a5,%hi(__metal_dt_clock_4)
	addi	a5,a5,%lo(__metal_dt_clock_4)
	j	.L15
.L14:
	.loc 1 1141 11
	lw	a4,-20(s0)
	.loc 1 1141 30
	lui	a5,%hi(__metal_dt_serial_10023000)
	addi	a5,a5,%lo(__metal_dt_serial_10023000)
	.loc 1 1141 10
	bne	a4,a5,.L16
	.loc 1 1142 10
	lui	a5,%hi(__metal_dt_clock_4)
	addi	a5,a5,%lo(__metal_dt_clock_4)
	j	.L15
.L16:
	.loc 1 1145 10
	li	a5,0
.L15:
	.loc 1 1147 1
	mv	a0,a5
	lw	s0,28(sp)
	.cfi_restore 8
	.cfi_def_cfa 2, 32
	addi	sp,sp,32
	.cfi_def_cfa_offset 0
	jr	ra
	.cfi_endproc
.LFE189:
	.size	__metal_driver_sifive_uart0_clock, .-__metal_driver_sifive_uart0_clock
	.section	.text.__metal_driver_sifive_uart0_pinmux,"ax",@progbits
	.align	1
	.type	__metal_driver_sifive_uart0_pinmux, @function
__metal_driver_sifive_uart0_pinmux:
.LFB190:
	.loc 1 1150 1
	.cfi_startproc
	addi	sp,sp,-32
	.cfi_def_cfa_offset 32
	sw	s0,28(sp)
	.cfi_offset 8, -4
	addi	s0,sp,32
	.cfi_def_cfa 8, 0
	sw	a0,-20(s0)
	.loc 1 1151 6
	lw	a4,-20(s0)
	.loc 1 1151 25
	lui	a5,%hi(__metal_dt_serial_10013000)
	addi	a5,a5,%lo(__metal_dt_serial_10013000)
	.loc 1 1151 5
	bne	a4,a5,.L18
	.loc 1 1152 10
	lui	a5,%hi(__metal_dt_gpio_10012000)
	addi	a5,a5,%lo(__metal_dt_gpio_10012000)
	j	.L19
.L18:
	.loc 1 1154 11
	lw	a4,-20(s0)
	.loc 1 1154 30
	lui	a5,%hi(__metal_dt_serial_10023000)
	addi	a5,a5,%lo(__metal_dt_serial_10023000)
	.loc 1 1154 10
	bne	a4,a5,.L20
	.loc 1 1155 10
	lui	a5,%hi(__metal_dt_gpio_10012000)
	addi	a5,a5,%lo(__metal_dt_gpio_10012000)
	j	.L19
.L20:
	.loc 1 1158 10
	li	a5,0
.L19:
	.loc 1 1160 1
	mv	a0,a5
	lw	s0,28(sp)
	.cfi_restore 8
	.cfi_def_cfa 2, 32
	addi	sp,sp,32
	.cfi_def_cfa_offset 0
	jr	ra
	.cfi_endproc
.LFE190:
	.size	__metal_driver_sifive_uart0_pinmux, .-__metal_driver_sifive_uart0_pinmux
	.section	.text.__metal_driver_sifive_uart0_pinmux_output_selector,"ax",@progbits
	.align	1
	.type	__metal_driver_sifive_uart0_pinmux_output_selector, @function
__metal_driver_sifive_uart0_pinmux_output_selector:
.LFB191:
	.loc 1 1163 1
	.cfi_startproc
	addi	sp,sp,-32
	.cfi_def_cfa_offset 32
	sw	s0,28(sp)
	.cfi_offset 8, -4
	addi	s0,sp,32
	.cfi_def_cfa 8, 0
	sw	a0,-20(s0)
	.loc 1 1164 6
	lw	a4,-20(s0)
	.loc 1 1164 25
	lui	a5,%hi(__metal_dt_serial_10013000)
	addi	a5,a5,%lo(__metal_dt_serial_10013000)
	.loc 1 1164 5
	bne	a4,a5,.L22
	.loc 1 1165 10
	li	a5,0
	j	.L23
.L22:
	.loc 1 1167 11
	lw	a4,-20(s0)
	.loc 1 1167 30
	lui	a5,%hi(__metal_dt_serial_10023000)
	addi	a5,a5,%lo(__metal_dt_serial_10023000)
	.loc 1 1167 10
	bne	a4,a5,.L24
	.loc 1 1168 10
	li	a5,0
	j	.L23
.L24:
	.loc 1 1171 10
	li	a5,0
.L23:
	.loc 1 1173 1
	mv	a0,a5
	lw	s0,28(sp)
	.cfi_restore 8
	.cfi_def_cfa 2, 32
	addi	sp,sp,32
	.cfi_def_cfa_offset 0
	jr	ra
	.cfi_endproc
.LFE191:
	.size	__metal_driver_sifive_uart0_pinmux_output_selector, .-__metal_driver_sifive_uart0_pinmux_output_selector
	.section	.text.__metal_driver_sifive_uart0_pinmux_source_selector,"ax",@progbits
	.align	1
	.type	__metal_driver_sifive_uart0_pinmux_source_selector, @function
__metal_driver_sifive_uart0_pinmux_source_selector:
.LFB192:
	.loc 1 1176 1
	.cfi_startproc
	addi	sp,sp,-32
	.cfi_def_cfa_offset 32
	sw	s0,28(sp)
	.cfi_offset 8, -4
	addi	s0,sp,32
	.cfi_def_cfa 8, 0
	sw	a0,-20(s0)
	.loc 1 1177 6
	lw	a4,-20(s0)
	.loc 1 1177 25
	lui	a5,%hi(__metal_dt_serial_10013000)
	addi	a5,a5,%lo(__metal_dt_serial_10013000)
	.loc 1 1177 5
	bne	a4,a5,.L26
	.loc 1 1178 10
	li	a5,196608
	j	.L27
.L26:
	.loc 1 1180 11
	lw	a4,-20(s0)
	.loc 1 1180 30
	lui	a5,%hi(__metal_dt_serial_10023000)
	addi	a5,a5,%lo(__metal_dt_serial_10023000)
	.loc 1 1180 10
	bne	a4,a5,.L28
	.loc 1 1181 10
	li	a5,8650752
	j	.L27
.L28:
	.loc 1 1184 10
	li	a5,0
.L27:
	.loc 1 1186 1
	mv	a0,a5
	lw	s0,28(sp)
	.cfi_restore 8
	.cfi_def_cfa 2, 32
	addi	sp,sp,32
	.cfi_def_cfa_offset 0
	jr	ra
	.cfi_endproc
.LFE192:
	.size	__metal_driver_sifive_uart0_pinmux_source_selector, .-__metal_driver_sifive_uart0_pinmux_source_selector
	.weak	__metal_memory_table
	.section	.data.__metal_memory_table,"aw"
	.align	2
	.type	__metal_memory_table, @object
	.size	__metal_memory_table, 12
__metal_memory_table:
	.word	__metal_dt_mem_dtim_80000000
	.word	__metal_dt_mem_itim_8000000
	.word	__metal_dt_mem_spi_10014000
	.weak	__metal_cpu_table
	.section	.sdata.__metal_cpu_table,"aw"
	.align	2
	.type	__metal_cpu_table, @object
	.size	__metal_cpu_table, 4
__metal_cpu_table:
	.word	__metal_dt_cpu_0
	.weak	__metal_gpio_table
	.section	.sdata.__metal_gpio_table,"aw"
	.align	2
	.type	__metal_gpio_table, @object
	.size	__metal_gpio_table, 4
__metal_gpio_table:
	.word	__metal_dt_gpio_10012000
	.weak	__metal_button_table
	.section	.sbss.__metal_button_table,"aw",@nobits
	.align	2
	.type	__metal_button_table, @object
	.size	__metal_button_table, 4
__metal_button_table:
	.zero	4
	.weak	__metal_led_table
	.section	.data.__metal_led_table,"aw"
	.align	2
	.type	__metal_led_table, @object
	.size	__metal_led_table, 12
__metal_led_table:
	.word	__metal_dt_led_0
	.word	__metal_dt_led_1
	.word	__metal_dt_led_2
	.weak	__metal_switch_table
	.section	.sbss.__metal_switch_table,"aw",@nobits
	.align	2
	.type	__metal_switch_table, @object
	.size	__metal_switch_table, 4
__metal_switch_table:
	.zero	4
	.weak	__metal_i2c_table
	.section	.sdata.__metal_i2c_table,"aw"
	.align	2
	.type	__metal_i2c_table, @object
	.size	__metal_i2c_table, 4
__metal_i2c_table:
	.word	__metal_dt_i2c_10016000
	.weak	__metal_pwm_table
	.section	.data.__metal_pwm_table,"aw"
	.align	2
	.type	__metal_pwm_table, @object
	.size	__metal_pwm_table, 12
__metal_pwm_table:
	.word	__metal_dt_pwm_10015000
	.word	__metal_dt_pwm_10025000
	.word	__metal_dt_pwm_10035000
	.weak	__metal_rtc_table
	.section	.sdata.__metal_rtc_table,"aw"
	.align	2
	.type	__metal_rtc_table, @object
	.size	__metal_rtc_table, 4
__metal_rtc_table:
	.word	__metal_dt_rtc_10000000
	.weak	__metal_spi_table
	.section	.data.__metal_spi_table,"aw"
	.align	2
	.type	__metal_spi_table, @object
	.size	__metal_spi_table, 12
__metal_spi_table:
	.word	__metal_dt_spi_10014000
	.word	__metal_dt_spi_10024000
	.word	__metal_dt_spi_10034000
	.weak	__metal_uart_table
	.section	.sdata.__metal_uart_table,"aw"
	.align	2
	.type	__metal_uart_table, @object
	.size	__metal_uart_table, 8
__metal_uart_table:
	.word	__metal_dt_serial_10013000
	.word	__metal_dt_serial_10023000
	.weak	__metal_simuart_table
	.section	.sbss.__metal_simuart_table,"aw",@nobits
	.align	2
	.type	__metal_simuart_table, @object
	.size	__metal_simuart_table, 4
__metal_simuart_table:
	.zero	4
	.weak	__metal_wdog_table
	.section	.sdata.__metal_wdog_table,"aw"
	.align	2
	.type	__metal_wdog_table, @object
	.size	__metal_wdog_table, 4
__metal_wdog_table:
	.word	__metal_dt_aon_10000000
	.section	.text.__metal_driver_sifive_uart0_interrupt_controller,"ax",@progbits
	.align	1
	.globl	__metal_driver_sifive_uart0_interrupt_controller
	.type	__metal_driver_sifive_uart0_interrupt_controller, @function
__metal_driver_sifive_uart0_interrupt_controller:
.LFB219:
	.file 2 "/home/gra2p/Documents/uva_courses/rp1/src/freedom-metal/src/drivers/sifive_uart0.c"
	.loc 2 37 75
	.cfi_startproc
	addi	sp,sp,-32
	.cfi_def_cfa_offset 32
	sw	ra,28(sp)
	sw	s0,24(sp)
	.cfi_offset 1, -4
	.cfi_offset 8, -8
	addi	s0,sp,32
	.cfi_def_cfa 8, 0
	sw	a0,-20(s0)
	.loc 2 38 12
	lw	a0,-20(s0)
	call	__metal_driver_sifive_uart0_interrupt_parent
	mv	a5,a0
	.loc 2 39 1
	mv	a0,a5
	lw	ra,28(sp)
	.cfi_restore 1
	lw	s0,24(sp)
	.cfi_restore 8
	.cfi_def_cfa 2, 32
	addi	sp,sp,32
	.cfi_def_cfa_offset 0
	jr	ra
	.cfi_endproc
.LFE219:
	.size	__metal_driver_sifive_uart0_interrupt_controller, .-__metal_driver_sifive_uart0_interrupt_controller
	.section	.text.__metal_driver_sifive_uart0_get_interrupt_id,"ax",@progbits
	.align	1
	.globl	__metal_driver_sifive_uart0_get_interrupt_id
	.type	__metal_driver_sifive_uart0_get_interrupt_id, @function
__metal_driver_sifive_uart0_get_interrupt_id:
.LFB220:
	.loc 2 41 75
	.cfi_startproc
	addi	sp,sp,-32
	.cfi_def_cfa_offset 32
	sw	ra,28(sp)
	sw	s0,24(sp)
	.cfi_offset 1, -4
	.cfi_offset 8, -8
	addi	s0,sp,32
	.cfi_def_cfa 8, 0
	sw	a0,-20(s0)
	.loc 2 42 12
	lw	a0,-20(s0)
	call	__metal_driver_sifive_uart0_interrupt_line
	mv	a5,a0
	.loc 2 43 1
	mv	a0,a5
	lw	ra,28(sp)
	.cfi_restore 1
	lw	s0,24(sp)
	.cfi_restore 8
	.cfi_def_cfa 2, 32
	addi	sp,sp,32
	.cfi_def_cfa_offset 0
	jr	ra
	.cfi_endproc
.LFE220:
	.size	__metal_driver_sifive_uart0_get_interrupt_id, .-__metal_driver_sifive_uart0_get_interrupt_id
	.section	.text.__metal_driver_sifive_uart0_tx_interrupt_enable,"ax",@progbits
	.align	1
	.globl	__metal_driver_sifive_uart0_tx_interrupt_enable
	.type	__metal_driver_sifive_uart0_tx_interrupt_enable, @function
__metal_driver_sifive_uart0_tx_interrupt_enable:
.LFB221:
	.loc 2 45 78
	.cfi_startproc
	addi	sp,sp,-48
	.cfi_def_cfa_offset 48
	sw	ra,44(sp)
	sw	s0,40(sp)
	.cfi_offset 1, -4
	.cfi_offset 8, -8
	addi	s0,sp,48
	.cfi_def_cfa 8, 0
	sw	a0,-36(s0)
	.loc 2 46 25
	lw	a0,-36(s0)
	call	__metal_driver_sifive_uart0_control_base
	mv	a5,a0
	.loc 2 46 10
	sw	a5,-20(s0)
	.loc 2 48 151
	lw	a5,-20(s0)
	addi	a5,a5,16
	lw	a5,0(a5)
	lw	a4,-20(s0)
	addi	a4,a4,16
	ori	a5,a5,1
	sw	a5,0(a4)
	.loc 2 49 12
	li	a5,0
	.loc 2 50 1
	mv	a0,a5
	lw	ra,44(sp)
	.cfi_restore 1
	lw	s0,40(sp)
	.cfi_restore 8
	.cfi_def_cfa 2, 48
	addi	sp,sp,48
	.cfi_def_cfa_offset 0
	jr	ra
	.cfi_endproc
.LFE221:
	.size	__metal_driver_sifive_uart0_tx_interrupt_enable, .-__metal_driver_sifive_uart0_tx_interrupt_enable
	.section	.text.__metal_driver_sifive_uart0_tx_interrupt_disable,"ax",@progbits
	.align	1
	.globl	__metal_driver_sifive_uart0_tx_interrupt_disable
	.type	__metal_driver_sifive_uart0_tx_interrupt_disable, @function
__metal_driver_sifive_uart0_tx_interrupt_disable:
.LFB222:
	.loc 2 52 79
	.cfi_startproc
	addi	sp,sp,-48
	.cfi_def_cfa_offset 48
	sw	ra,44(sp)
	sw	s0,40(sp)
	.cfi_offset 1, -4
	.cfi_offset 8, -8
	addi	s0,sp,48
	.cfi_def_cfa 8, 0
	sw	a0,-36(s0)
	.loc 2 53 25
	lw	a0,-36(s0)
	call	__metal_driver_sifive_uart0_control_base
	mv	a5,a0
	.loc 2 53 10
	sw	a5,-20(s0)
	.loc 2 55 151
	lw	a5,-20(s0)
	addi	a5,a5,16
	lw	a5,0(a5)
	lw	a4,-20(s0)
	addi	a4,a4,16
	andi	a5,a5,-2
	sw	a5,0(a4)
	.loc 2 56 12
	li	a5,0
	.loc 2 57 1
	mv	a0,a5
	lw	ra,44(sp)
	.cfi_restore 1
	lw	s0,40(sp)
	.cfi_restore 8
	.cfi_def_cfa 2, 48
	addi	sp,sp,48
	.cfi_def_cfa_offset 0
	jr	ra
	.cfi_endproc
.LFE222:
	.size	__metal_driver_sifive_uart0_tx_interrupt_disable, .-__metal_driver_sifive_uart0_tx_interrupt_disable
	.section	.text.__metal_driver_sifive_uart0_rx_interrupt_enable,"ax",@progbits
	.align	1
	.globl	__metal_driver_sifive_uart0_rx_interrupt_enable
	.type	__metal_driver_sifive_uart0_rx_interrupt_enable, @function
__metal_driver_sifive_uart0_rx_interrupt_enable:
.LFB223:
	.loc 2 59 78
	.cfi_startproc
	addi	sp,sp,-48
	.cfi_def_cfa_offset 48
	sw	ra,44(sp)
	sw	s0,40(sp)
	.cfi_offset 1, -4
	.cfi_offset 8, -8
	addi	s0,sp,48
	.cfi_def_cfa 8, 0
	sw	a0,-36(s0)
	.loc 2 60 25
	lw	a0,-36(s0)
	call	__metal_driver_sifive_uart0_control_base
	mv	a5,a0
	.loc 2 60 10
	sw	a5,-20(s0)
	.loc 2 62 151
	lw	a5,-20(s0)
	addi	a5,a5,16
	lw	a5,0(a5)
	lw	a4,-20(s0)
	addi	a4,a4,16
	ori	a5,a5,2
	sw	a5,0(a4)
	.loc 2 63 12
	li	a5,0
	.loc 2 64 1
	mv	a0,a5
	lw	ra,44(sp)
	.cfi_restore 1
	lw	s0,40(sp)
	.cfi_restore 8
	.cfi_def_cfa 2, 48
	addi	sp,sp,48
	.cfi_def_cfa_offset 0
	jr	ra
	.cfi_endproc
.LFE223:
	.size	__metal_driver_sifive_uart0_rx_interrupt_enable, .-__metal_driver_sifive_uart0_rx_interrupt_enable
	.section	.text.__metal_driver_sifive_uart0_rx_interrupt_disable,"ax",@progbits
	.align	1
	.globl	__metal_driver_sifive_uart0_rx_interrupt_disable
	.type	__metal_driver_sifive_uart0_rx_interrupt_disable, @function
__metal_driver_sifive_uart0_rx_interrupt_disable:
.LFB224:
	.loc 2 66 79
	.cfi_startproc
	addi	sp,sp,-48
	.cfi_def_cfa_offset 48
	sw	ra,44(sp)
	sw	s0,40(sp)
	.cfi_offset 1, -4
	.cfi_offset 8, -8
	addi	s0,sp,48
	.cfi_def_cfa 8, 0
	sw	a0,-36(s0)
	.loc 2 67 25
	lw	a0,-36(s0)
	call	__metal_driver_sifive_uart0_control_base
	mv	a5,a0
	.loc 2 67 10
	sw	a5,-20(s0)
	.loc 2 69 151
	lw	a5,-20(s0)
	addi	a5,a5,16
	lw	a5,0(a5)
	lw	a4,-20(s0)
	addi	a4,a4,16
	andi	a5,a5,-3
	sw	a5,0(a4)
	.loc 2 70 12
	li	a5,0
	.loc 2 71 1
	mv	a0,a5
	lw	ra,44(sp)
	.cfi_restore 1
	lw	s0,40(sp)
	.cfi_restore 8
	.cfi_def_cfa 2, 48
	addi	sp,sp,48
	.cfi_def_cfa_offset 0
	jr	ra
	.cfi_endproc
.LFE224:
	.size	__metal_driver_sifive_uart0_rx_interrupt_disable, .-__metal_driver_sifive_uart0_rx_interrupt_disable
	.section	.text.__metal_driver_sifive_uart0_txready,"ax",@progbits
	.align	1
	.globl	__metal_driver_sifive_uart0_txready
	.type	__metal_driver_sifive_uart0_txready, @function
__metal_driver_sifive_uart0_txready:
.LFB225:
	.loc 2 73 66
	.cfi_startproc
	addi	sp,sp,-48
	.cfi_def_cfa_offset 48
	sw	ra,44(sp)
	sw	s0,40(sp)
	.cfi_offset 1, -4
	.cfi_offset 8, -8
	addi	s0,sp,48
	.cfi_def_cfa 8, 0
	sw	a0,-36(s0)
	.loc 2 74 25
	lw	a0,-36(s0)
	call	__metal_driver_sifive_uart0_control_base
	mv	a5,a0
	.loc 2 74 10
	sw	a5,-20(s0)
	.loc 2 76 19
	lw	a5,-20(s0)
	.loc 2 76 18
	lw	a5,0(a5)
	.loc 2 76 12
	srli	a5,a5,31
	andi	a5,a5,0xff
	.loc 2 77 1
	mv	a0,a5
	lw	ra,44(sp)
	.cfi_restore 1
	lw	s0,40(sp)
	.cfi_restore 8
	.cfi_def_cfa 2, 48
	addi	sp,sp,48
	.cfi_def_cfa_offset 0
	jr	ra
	.cfi_endproc
.LFE225:
	.size	__metal_driver_sifive_uart0_txready, .-__metal_driver_sifive_uart0_txready
	.section	.text.__metal_driver_sifive_uart0_set_tx_watermark,"ax",@progbits
	.align	1
	.globl	__metal_driver_sifive_uart0_set_tx_watermark
	.type	__metal_driver_sifive_uart0_set_tx_watermark, @function
__metal_driver_sifive_uart0_set_tx_watermark:
.LFB226:
	.loc 2 80 64
	.cfi_startproc
	addi	sp,sp,-48
	.cfi_def_cfa_offset 48
	sw	ra,44(sp)
	sw	s0,40(sp)
	.cfi_offset 1, -4
	.cfi_offset 8, -8
	addi	s0,sp,48
	.cfi_def_cfa 8, 0
	sw	a0,-36(s0)
	sw	a1,-40(s0)
	.loc 2 81 25
	lw	a0,-36(s0)
	call	__metal_driver_sifive_uart0_control_base
	mv	a5,a0
	.loc 2 81 10
	sw	a5,-20(s0)
	.loc 2 83 149
	lw	a5,-20(s0)
	addi	a5,a5,8
	lw	a4,0(a5)
	.loc 2 83 167
	lw	a5,-40(s0)
	slli	a3,a5,16
	li	a5,458752
	and	a5,a3,a5
	.loc 2 83 149
	lw	a3,-20(s0)
	addi	a3,a3,8
	or	a5,a4,a5
	sw	a5,0(a3)
	.loc 2 84 12
	li	a5,0
	.loc 2 85 1
	mv	a0,a5
	lw	ra,44(sp)
	.cfi_restore 1
	lw	s0,40(sp)
	.cfi_restore 8
	.cfi_def_cfa 2, 48
	addi	sp,sp,48
	.cfi_def_cfa_offset 0
	jr	ra
	.cfi_endproc
.LFE226:
	.size	__metal_driver_sifive_uart0_set_tx_watermark, .-__metal_driver_sifive_uart0_set_tx_watermark
	.section	.text.__metal_driver_sifive_uart0_get_tx_watermark,"ax",@progbits
	.align	1
	.globl	__metal_driver_sifive_uart0_get_tx_watermark
	.type	__metal_driver_sifive_uart0_get_tx_watermark, @function
__metal_driver_sifive_uart0_get_tx_watermark:
.LFB227:
	.loc 2 87 78
	.cfi_startproc
	addi	sp,sp,-48
	.cfi_def_cfa_offset 48
	sw	ra,44(sp)
	sw	s0,40(sp)
	.cfi_offset 1, -4
	.cfi_offset 8, -8
	addi	s0,sp,48
	.cfi_def_cfa 8, 0
	sw	a0,-36(s0)
	.loc 2 88 25
	lw	a0,-36(s0)
	call	__metal_driver_sifive_uart0_control_base
	mv	a5,a0
	.loc 2 88 10
	sw	a5,-20(s0)
	.loc 2 90 119
	lw	a5,-20(s0)
	.loc 2 90 147
	addi	a5,a5,8
	.loc 2 90 16
	lw	a5,0(a5)
	.loc 2 90 158
	srli	a5,a5,16
	.loc 2 90 165
	andi	a5,a5,7
	.loc 2 91 1
	mv	a0,a5
	lw	ra,44(sp)
	.cfi_restore 1
	lw	s0,40(sp)
	.cfi_restore 8
	.cfi_def_cfa 2, 48
	addi	sp,sp,48
	.cfi_def_cfa_offset 0
	jr	ra
	.cfi_endproc
.LFE227:
	.size	__metal_driver_sifive_uart0_get_tx_watermark, .-__metal_driver_sifive_uart0_get_tx_watermark
	.section	.text.__metal_driver_sifive_uart0_set_rx_watermark,"ax",@progbits
	.align	1
	.globl	__metal_driver_sifive_uart0_set_rx_watermark
	.type	__metal_driver_sifive_uart0_set_rx_watermark, @function
__metal_driver_sifive_uart0_set_rx_watermark:
.LFB228:
	.loc 2 94 64
	.cfi_startproc
	addi	sp,sp,-48
	.cfi_def_cfa_offset 48
	sw	ra,44(sp)
	sw	s0,40(sp)
	.cfi_offset 1, -4
	.cfi_offset 8, -8
	addi	s0,sp,48
	.cfi_def_cfa 8, 0
	sw	a0,-36(s0)
	sw	a1,-40(s0)
	.loc 2 95 25
	lw	a0,-36(s0)
	call	__metal_driver_sifive_uart0_control_base
	mv	a5,a0
	.loc 2 95 10
	sw	a5,-20(s0)
	.loc 2 97 151
	lw	a5,-20(s0)
	addi	a5,a5,12
	lw	a4,0(a5)
	.loc 2 97 169
	lw	a5,-40(s0)
	slli	a3,a5,16
	li	a5,458752
	and	a5,a3,a5
	.loc 2 97 151
	lw	a3,-20(s0)
	addi	a3,a3,12
	or	a5,a4,a5
	sw	a5,0(a3)
	.loc 2 98 12
	li	a5,0
	.loc 2 99 1
	mv	a0,a5
	lw	ra,44(sp)
	.cfi_restore 1
	lw	s0,40(sp)
	.cfi_restore 8
	.cfi_def_cfa 2, 48
	addi	sp,sp,48
	.cfi_def_cfa_offset 0
	jr	ra
	.cfi_endproc
.LFE228:
	.size	__metal_driver_sifive_uart0_set_rx_watermark, .-__metal_driver_sifive_uart0_set_rx_watermark
	.section	.text.__metal_driver_sifive_uart0_get_rx_watermark,"ax",@progbits
	.align	1
	.globl	__metal_driver_sifive_uart0_get_rx_watermark
	.type	__metal_driver_sifive_uart0_get_rx_watermark, @function
__metal_driver_sifive_uart0_get_rx_watermark:
.LFB229:
	.loc 2 101 78
	.cfi_startproc
	addi	sp,sp,-48
	.cfi_def_cfa_offset 48
	sw	ra,44(sp)
	sw	s0,40(sp)
	.cfi_offset 1, -4
	.cfi_offset 8, -8
	addi	s0,sp,48
	.cfi_def_cfa 8, 0
	sw	a0,-36(s0)
	.loc 2 102 25
	lw	a0,-36(s0)
	call	__metal_driver_sifive_uart0_control_base
	mv	a5,a0
	.loc 2 102 10
	sw	a5,-20(s0)
	.loc 2 104 120
	lw	a5,-20(s0)
	.loc 2 104 148
	addi	a5,a5,12
	.loc 2 104 16
	lw	a5,0(a5)
	.loc 2 104 160
	srli	a5,a5,16
	.loc 2 104 167
	andi	a5,a5,7
	.loc 2 105 1
	mv	a0,a5
	lw	ra,44(sp)
	.cfi_restore 1
	lw	s0,40(sp)
	.cfi_restore 8
	.cfi_def_cfa 2, 48
	addi	sp,sp,48
	.cfi_def_cfa_offset 0
	jr	ra
	.cfi_endproc
.LFE229:
	.size	__metal_driver_sifive_uart0_get_rx_watermark, .-__metal_driver_sifive_uart0_get_rx_watermark
	.section	.text.__metal_driver_sifive_uart0_putc,"ax",@progbits
	.align	1
	.globl	__metal_driver_sifive_uart0_putc
	.type	__metal_driver_sifive_uart0_putc, @function
__metal_driver_sifive_uart0_putc:
.LFB230:
	.loc 2 107 70
	.cfi_startproc
	addi	sp,sp,-48
	.cfi_def_cfa_offset 48
	sw	ra,44(sp)
	sw	s0,40(sp)
	.cfi_offset 1, -4
	.cfi_offset 8, -8
	addi	s0,sp,48
	.cfi_def_cfa 8, 0
	sw	a0,-36(s0)
	sw	a1,-40(s0)
	.loc 2 108 25
	lw	a0,-36(s0)
	call	__metal_driver_sifive_uart0_control_base
	mv	a5,a0
	.loc 2 108 10
	sw	a5,-20(s0)
	.loc 2 110 11
	nop
.L52:
	.loc 2 110 12 discriminator 1
	lw	a0,-36(s0)
	call	__metal_driver_sifive_uart0_txready
	mv	a5,a0
	.loc 2 110 11 discriminator 1
	bne	a5,zero,.L52
	.loc 2 113 8
	lw	a5,-20(s0)
	.loc 2 113 149
	lw	a4,-40(s0)
	sw	a4,0(a5)
	.loc 2 114 12
	li	a5,0
	.loc 2 115 1
	mv	a0,a5
	lw	ra,44(sp)
	.cfi_restore 1
	lw	s0,40(sp)
	.cfi_restore 8
	.cfi_def_cfa 2, 48
	addi	sp,sp,48
	.cfi_def_cfa_offset 0
	jr	ra
	.cfi_endproc
.LFE230:
	.size	__metal_driver_sifive_uart0_putc, .-__metal_driver_sifive_uart0_putc
	.section	.text.__metal_driver_sifive_uart0_getc,"ax",@progbits
	.align	1
	.globl	__metal_driver_sifive_uart0_getc
	.type	__metal_driver_sifive_uart0_getc, @function
__metal_driver_sifive_uart0_getc:
.LFB231:
	.loc 2 117 71
	.cfi_startproc
	addi	sp,sp,-48
	.cfi_def_cfa_offset 48
	sw	ra,44(sp)
	sw	s0,40(sp)
	.cfi_offset 1, -4
	.cfi_offset 8, -8
	addi	s0,sp,48
	.cfi_def_cfa 8, 0
	sw	a0,-36(s0)
	sw	a1,-40(s0)
	.loc 2 119 25
	lw	a0,-36(s0)
	call	__metal_driver_sifive_uart0_control_base
	mv	a5,a0
	.loc 2 119 10
	sw	a5,-20(s0)
	.loc 2 121 115
	lw	a5,-20(s0)
	.loc 2 121 143
	addi	a5,a5,4
	.loc 2 121 8
	lw	a5,0(a5)
	sw	a5,-24(s0)
	.loc 2 123 9
	lw	a5,-24(s0)
	.loc 2 123 8
	bge	a5,zero,.L55
	.loc 2 124 12
	lw	a5,-40(s0)
	li	a4,-1
	sw	a4,0(a5)
	j	.L56
.L55:
	.loc 2 126 17
	lw	a5,-24(s0)
	andi	a4,a5,255
	.loc 2 126 12
	lw	a5,-40(s0)
	sw	a4,0(a5)
.L56:
	.loc 2 128 12
	li	a5,0
	.loc 2 129 1
	mv	a0,a5
	lw	ra,44(sp)
	.cfi_restore 1
	lw	s0,40(sp)
	.cfi_restore 8
	.cfi_def_cfa 2, 48
	addi	sp,sp,48
	.cfi_def_cfa_offset 0
	jr	ra
	.cfi_endproc
.LFE231:
	.size	__metal_driver_sifive_uart0_getc, .-__metal_driver_sifive_uart0_getc
	.section	.text.__metal_driver_sifive_uart0_get_baud_rate,"ax",@progbits
	.align	1
	.globl	__metal_driver_sifive_uart0_get_baud_rate
	.type	__metal_driver_sifive_uart0_get_baud_rate, @function
__metal_driver_sifive_uart0_get_baud_rate:
.LFB232:
	.loc 2 131 73
	.cfi_startproc
	addi	sp,sp,-48
	.cfi_def_cfa_offset 48
	sw	s0,44(sp)
	.cfi_offset 8, -4
	addi	s0,sp,48
	.cfi_def_cfa 8, 0
	sw	a0,-36(s0)
	.loc 2 132 41
	lw	a5,-36(s0)
	sw	a5,-20(s0)
	.loc 2 133 16
	lw	a5,-20(s0)
	lw	a5,4(a5)
	.loc 2 134 1
	mv	a0,a5
	lw	s0,44(sp)
	.cfi_restore 8
	.cfi_def_cfa 2, 48
	addi	sp,sp,48
	.cfi_def_cfa_offset 0
	jr	ra
	.cfi_endproc
.LFE232:
	.size	__metal_driver_sifive_uart0_get_baud_rate, .-__metal_driver_sifive_uart0_get_baud_rate
	.section	.text.__metal_driver_sifive_uart0_set_baud_rate,"ax",@progbits
	.align	1
	.globl	__metal_driver_sifive_uart0_set_baud_rate
	.type	__metal_driver_sifive_uart0_set_baud_rate, @function
__metal_driver_sifive_uart0_set_baud_rate:
.LFB233:
	.loc 2 137 62
	.cfi_startproc
	addi	sp,sp,-48
	.cfi_def_cfa_offset 48
	sw	ra,44(sp)
	sw	s0,40(sp)
	.cfi_offset 1, -4
	.cfi_offset 8, -8
	addi	s0,sp,48
	.cfi_def_cfa 8, 0
	sw	a0,-36(s0)
	sw	a1,-40(s0)
	.loc 2 138 41
	lw	a5,-36(s0)
	sw	a5,-20(s0)
	.loc 2 139 25
	lw	a0,-36(s0)
	call	__metal_driver_sifive_uart0_control_base
	mv	a5,a0
	.loc 2 139 10
	sw	a5,-24(s0)
	.loc 2 140 33
	lw	a0,-36(s0)
	call	__metal_driver_sifive_uart0_clock
	sw	a0,-28(s0)
	.loc 2 142 21
	lw	a4,-40(s0)
	lw	a5,-20(s0)
	sw	a4,4(a5)
	.loc 2 144 8
	lw	a5,-28(s0)
	beq	a5,zero,.L61
.LBB2:
	.loc 2 145 32
	lw	a5,-28(s0)
	lw	a5,0(a5)
	.loc 2 145 40
	lw	a5,0(a5)
	.loc 2 145 27
	lw	a0,-28(s0)
	jalr	a5
.LVL0:
	sw	a0,-32(s0)
	.loc 2 146 168
	lw	a4,-32(s0)
	lw	a5,-40(s0)
	div	a5,a4,a5
	.loc 2 146 180
	addi	a4,a5,-1
	.loc 2 146 115
	lw	a5,-24(s0)
	.loc 2 146 143
	addi	a5,a5,24
	.loc 2 146 155
	sw	a4,0(a5)
	.loc 2 147 153
	lw	a5,-24(s0)
	addi	a5,a5,8
	lw	a5,0(a5)
	lw	a4,-24(s0)
	addi	a4,a4,8
	ori	a5,a5,1
	sw	a5,0(a4)
	.loc 2 148 155
	lw	a5,-24(s0)
	addi	a5,a5,12
	lw	a5,0(a5)
	lw	a4,-24(s0)
	addi	a4,a4,12
	ori	a5,a5,1
	sw	a5,0(a4)
.L61:
.LBE2:
	.loc 2 150 12
	li	a5,0
	.loc 2 151 1
	mv	a0,a5
	lw	ra,44(sp)
	.cfi_restore 1
	lw	s0,40(sp)
	.cfi_restore 8
	.cfi_def_cfa 2, 48
	addi	sp,sp,48
	.cfi_def_cfa_offset 0
	jr	ra
	.cfi_endproc
.LFE233:
	.size	__metal_driver_sifive_uart0_set_baud_rate, .-__metal_driver_sifive_uart0_set_baud_rate
	.section	.text.pre_rate_change_callback_func,"ax",@progbits
	.align	1
	.type	pre_rate_change_callback_func, @function
pre_rate_change_callback_func:
.LFB234:
	.loc 2 153 55
	.cfi_startproc
	addi	sp,sp,-64
	.cfi_def_cfa_offset 64
	sw	ra,60(sp)
	sw	s0,56(sp)
	.cfi_offset 1, -4
	.cfi_offset 8, -8
	addi	s0,sp,64
	.cfi_def_cfa 8, 0
	sw	a0,-52(s0)
	.loc 2 154 41
	lw	a5,-52(s0)
	sw	a5,-20(s0)
	.loc 2 156 9
	lw	a0,-52(s0)
	call	__metal_driver_sifive_uart0_control_base
	mv	a5,a0
	.loc 2 155 10
	sw	a5,-24(s0)
	.loc 2 158 9
	lw	a0,-52(s0)
	call	__metal_driver_sifive_uart0_clock
	sw	a0,-28(s0)
	.loc 2 163 149
	lw	a5,-24(s0)
	addi	a5,a5,8
	lw	a4,0(a5)
	lw	a5,-24(s0)
	addi	a5,a5,8
	mv	a3,a5
	li	a5,-458752
	addi	a5,a5,-1
	and	a5,a4,a5
	sw	a5,0(a3)
	.loc 2 164 149
	lw	a5,-24(s0)
	addi	a5,a5,8
	lw	a4,0(a5)
	lw	a5,-24(s0)
	addi	a5,a5,8
	mv	a3,a5
	li	a5,65536
	or	a5,a4,a5
	sw	a5,0(a3)
	.loc 2 166 11
	nop
.L64:
	.loc 2 166 119 discriminator 1
	lw	a5,-24(s0)
	.loc 2 166 147 discriminator 1
	addi	a5,a5,20
	.loc 2 166 15 discriminator 1
	lw	a5,0(a5)
	.loc 2 166 159 discriminator 1
	andi	a5,a5,1
	.loc 2 166 11 discriminator 1
	beq	a5,zero,.L64
	.loc 2 174 115
	lw	a5,-24(s0)
	.loc 2 174 143
	addi	a5,a5,8
	.loc 2 174 12
	lw	a5,0(a5)
	.loc 2 174 154
	andi	a5,a5,2
	.loc 2 174 170
	beq	a5,zero,.L65
	.loc 2 174 170 is_stmt 0 discriminator 1
	li	a5,9
	j	.L66
.L65:
	.loc 2 174 170 discriminator 2
	li	a5,10
.L66:
	.loc 2 173 10 is_stmt 1
	sw	a5,-32(s0)
	.loc 2 175 26
	lw	a5,-28(s0)
	lw	a5,0(a5)
	.loc 2 175 34
	lw	a5,0(a5)
	.loc 2 175 21
	lw	a0,-28(s0)
	jalr	a5
.LVL1:
	sw	a0,-36(s0)
	.loc 2 176 43
	lw	a4,-32(s0)
	lw	a5,-36(s0)
	mul	a5,a4,a5
	mv	a4,a5
	.loc 2 176 60
	lw	a5,-20(s0)
	lw	a5,4(a5)
	.loc 2 176 54
	divu	a5,a4,a5
	.loc 2 176 10
	sw	a5,-40(s0)
.LBB3:
	.loc 2 178 24
	sw	zero,-44(s0)
	.loc 2 178 5
	j	.L67
.L68:
	.loc 2 179 9 discriminator 3
 #APP
# 179 "/home/gra2p/Documents/uva_courses/rp1/src/freedom-metal/src/drivers/sifive_uart0.c" 1
	nop
# 0 "" 2
	.loc 2 178 52 discriminator 3
 #NO_APP
	lw	a5,-44(s0)
	addi	a5,a5,1
	sw	a5,-44(s0)
.L67:
	.loc 2 178 33 discriminator 1
	lw	a5,-44(s0)
	.loc 2 178 5 discriminator 1
	lw	a4,-40(s0)
	bgt	a4,a5,.L68
.LBE3:
	.loc 2 180 1
	nop
	nop
	lw	ra,60(sp)
	.cfi_restore 1
	lw	s0,56(sp)
	.cfi_restore 8
	.cfi_def_cfa 2, 64
	addi	sp,sp,64
	.cfi_def_cfa_offset 0
	jr	ra
	.cfi_endproc
.LFE234:
	.size	pre_rate_change_callback_func, .-pre_rate_change_callback_func
	.section	.text.post_rate_change_callback_func,"ax",@progbits
	.align	1
	.type	post_rate_change_callback_func, @function
post_rate_change_callback_func:
.LFB235:
	.loc 2 182 56
	.cfi_startproc
	addi	sp,sp,-48
	.cfi_def_cfa_offset 48
	sw	ra,44(sp)
	sw	s0,40(sp)
	.cfi_offset 1, -4
	.cfi_offset 8, -8
	addi	s0,sp,48
	.cfi_def_cfa 8, 0
	sw	a0,-36(s0)
	.loc 2 183 41
	lw	a5,-36(s0)
	sw	a5,-20(s0)
	.loc 2 184 5
	lw	a4,-20(s0)
	.loc 2 184 47
	lw	a5,-20(s0)
	lw	a5,4(a5)
	.loc 2 184 5
	mv	a1,a5
	mv	a0,a4
	call	metal_uart_set_baud_rate
	.loc 2 185 1
	nop
	lw	ra,44(sp)
	.cfi_restore 1
	lw	s0,40(sp)
	.cfi_restore 8
	.cfi_def_cfa 2, 48
	addi	sp,sp,48
	.cfi_def_cfa_offset 0
	jr	ra
	.cfi_endproc
.LFE235:
	.size	post_rate_change_callback_func, .-post_rate_change_callback_func
	.section	.text.__metal_driver_sifive_uart0_init,"ax",@progbits
	.align	1
	.globl	__metal_driver_sifive_uart0_init
	.type	__metal_driver_sifive_uart0_init, @function
__metal_driver_sifive_uart0_init:
.LFB236:
	.loc 2 187 80
	.cfi_startproc
	addi	sp,sp,-64
	.cfi_def_cfa_offset 64
	sw	ra,60(sp)
	sw	s0,56(sp)
	.cfi_offset 1, -4
	.cfi_offset 8, -8
	addi	s0,sp,64
	.cfi_def_cfa 8, 0
	sw	a0,-52(s0)
	sw	a1,-56(s0)
	.loc 2 188 41
	lw	a5,-52(s0)
	sw	a5,-20(s0)
	.loc 2 189 33
	lw	a0,-52(s0)
	call	__metal_driver_sifive_uart0_clock
	sw	a0,-24(s0)
	.loc 2 191 9
	lw	a0,-52(s0)
	call	__metal_driver_sifive_uart0_pinmux
	sw	a0,-28(s0)
	.loc 2 193 8
	lw	a5,-24(s0)
	beq	a5,zero,.L71
	.loc 2 194 49
	lw	a5,-20(s0)
	lui	a4,%hi(pre_rate_change_callback_func)
	addi	a4,a4,%lo(pre_rate_change_callback_func)
	sw	a4,8(a5)
	.loc 2 196 45
	lw	a5,-20(s0)
	lw	a4,-52(s0)
	sw	a4,12(a5)
	.loc 2 197 9
	lw	a5,-20(s0)
	addi	a5,a5,8
	mv	a1,a5
	lw	a0,-24(s0)
	call	metal_clock_register_pre_rate_change_callback
	.loc 2 200 50
	lw	a5,-20(s0)
	lui	a4,%hi(post_rate_change_callback_func)
	addi	a4,a4,%lo(post_rate_change_callback_func)
	sw	a4,20(a5)
	.loc 2 202 46
	lw	a5,-20(s0)
	lw	a4,-52(s0)
	sw	a4,24(a5)
	.loc 2 203 9
	lw	a5,-20(s0)
	addi	a5,a5,20
	mv	a1,a5
	lw	a0,-24(s0)
	call	metal_clock_register_post_rate_change_callback
.L71:
	.loc 2 207 5
	lw	a5,-20(s0)
	lw	a1,-56(s0)
	mv	a0,a5
	call	metal_uart_set_baud_rate
	.loc 2 209 8
	lw	a5,-28(s0)
	beq	a5,zero,.L73
.LBB4:
	.loc 2 211 13
	lw	a0,-52(s0)
	call	__metal_driver_sifive_uart0_pinmux_output_selector
	mv	a5,a0
	.loc 2 210 14
	sw	a5,-32(s0)
	.loc 2 213 13
	lw	a0,-52(s0)
	call	__metal_driver_sifive_uart0_pinmux_source_selector
	mv	a5,a0
	.loc 2 212 14
	sw	a5,-36(s0)
	.loc 2 214 21
	lw	a5,-28(s0)
	lw	a5,0(a5)
	.loc 2 214 28
	lw	a5,36(a5)
	.loc 2 214 9
	lw	a2,-36(s0)
	lw	a1,-32(s0)
	lw	a0,-28(s0)
	jalr	a5
.LVL2:
.L73:
.LBE4:
	.loc 2 218 1
	nop
	lw	ra,60(sp)
	.cfi_restore 1
	lw	s0,56(sp)
	.cfi_restore 8
	.cfi_def_cfa 2, 64
	addi	sp,sp,64
	.cfi_def_cfa_offset 0
	jr	ra
	.cfi_endproc
.LFE236:
	.size	__metal_driver_sifive_uart0_init, .-__metal_driver_sifive_uart0_init
	.globl	__metal_driver_vtable_sifive_uart0
	.section	.rodata.__metal_driver_vtable_sifive_uart0,"a"
	.align	2
	.type	__metal_driver_vtable_sifive_uart0, @object
	.size	__metal_driver_vtable_sifive_uart0, 64
__metal_driver_vtable_sifive_uart0:
	.word	__metal_driver_sifive_uart0_init
	.word	__metal_driver_sifive_uart0_putc
	.word	__metal_driver_sifive_uart0_txready
	.word	__metal_driver_sifive_uart0_getc
	.word	__metal_driver_sifive_uart0_get_baud_rate
	.word	__metal_driver_sifive_uart0_set_baud_rate
	.word	__metal_driver_sifive_uart0_interrupt_controller
	.word	__metal_driver_sifive_uart0_get_interrupt_id
	.word	__metal_driver_sifive_uart0_tx_interrupt_enable
	.word	__metal_driver_sifive_uart0_tx_interrupt_disable
	.word	__metal_driver_sifive_uart0_rx_interrupt_enable
	.word	__metal_driver_sifive_uart0_rx_interrupt_disable
	.word	__metal_driver_sifive_uart0_set_tx_watermark
	.word	__metal_driver_sifive_uart0_get_tx_watermark
	.word	__metal_driver_sifive_uart0_set_rx_watermark
	.word	__metal_driver_sifive_uart0_get_rx_watermark
	.text
.Letext0:
	.file 3 "/home/gra2p/Documents/uva_courses/rp1/src/freedom-metal/metal/clock.h"
	.file 4 "/home/gra2p/Documents/uva_courses/rp1/tools/riscv64-unknown-elf-toolchain-10.2.0-2020.12.8-x86_64-linux-ubuntu14/lib/gcc/riscv64-unknown-elf/10.2.0/include/stddef.h"
	.file 5 "/home/gra2p/Documents/uva_courses/rp1/src/freedom-metal/metal/interrupt.h"
	.file 6 "/home/gra2p/Documents/uva_courses/rp1/tools/riscv64-unknown-elf-toolchain-10.2.0-2020.12.8-x86_64-linux-ubuntu14/riscv64-unknown-elf/include/machine/_default_types.h"
	.file 7 "/home/gra2p/Documents/uva_courses/rp1/tools/riscv64-unknown-elf-toolchain-10.2.0-2020.12.8-x86_64-linux-ubuntu14/riscv64-unknown-elf/include/sys/_stdint.h"
	.file 8 "/home/gra2p/Documents/uva_courses/rp1/src/freedom-metal/metal/cpu.h"
	.file 9 "/home/gra2p/Documents/uva_courses/rp1/src/freedom-metal/metal/drivers/riscv_cpu.h"
	.file 10 "/home/gra2p/Documents/uva_courses/rp1/src/freedom-metal/metal/drivers/riscv_plic0.h"
	.file 11 "/home/gra2p/Documents/uva_courses/rp1/src/freedom-metal/metal/gpio.h"
	.file 12 "/home/gra2p/Documents/uva_courses/rp1/src/freedom-metal/metal/drivers/sifive_gpio0.h"
	.file 13 "/home/gra2p/Documents/uva_courses/rp1/src/freedom-metal/metal/io.h"
	.file 14 "/home/gra2p/Documents/uva_courses/rp1/src/freedom-metal/metal/uart.h"
	.file 15 "/home/gra2p/Documents/uva_courses/rp1/src/freedom-metal/metal/drivers/sifive_uart0.h"
	.file 16 "/home/gra2p/Documents/uva_courses/rp1/src/freedom-metal/metal/memory.h"
	.file 17 "/home/gra2p/Documents/uva_courses/rp1/src/freedom-metal/metal/led.h"
	.file 18 "/home/gra2p/Documents/uva_courses/rp1/src/freedom-metal/metal/drivers/sifive_gpio-leds.h"
	.file 19 "/home/gra2p/Documents/uva_courses/rp1/src/freedom-metal/metal/i2c.h"
	.file 20 "/home/gra2p/Documents/uva_courses/rp1/src/freedom-metal/metal/drivers/sifive_i2c0.h"
	.file 21 "/home/gra2p/Documents/uva_courses/rp1/src/freedom-metal/metal/pwm.h"
	.file 22 "/home/gra2p/Documents/uva_courses/rp1/src/freedom-metal/metal/drivers/sifive_pwm0.h"
	.file 23 "/home/gra2p/Documents/uva_courses/rp1/src/freedom-metal/metal/rtc.h"
	.file 24 "/home/gra2p/Documents/uva_courses/rp1/src/freedom-metal/metal/drivers/sifive_rtc0.h"
	.file 25 "/home/gra2p/Documents/uva_courses/rp1/src/freedom-metal/metal/spi.h"
	.file 26 "/home/gra2p/Documents/uva_courses/rp1/src/freedom-metal/metal/drivers/sifive_spi0.h"
	.file 27 "/home/gra2p/Documents/uva_courses/rp1/src/freedom-metal/metal/watchdog.h"
	.file 28 "/home/gra2p/Documents/uva_courses/rp1/src/freedom-metal/metal/drivers/sifive_wdog0.h"
	.file 29 "/home/gra2p/Documents/uva_courses/rp1/src/freedom-metal/metal/drivers/sifive_fe310-g000_pll.h"