	.file	"sys_sbrk.c"
	.option nopic
	.attribute arch, "rv32i2p0_m2p0_a2p0_c2p0"
	.attribute unaligned_access, 0
	.attribute stack_align, 16
	.text
.Ltext0:
	.cfi_sections	.debug_frame
	.section	.sdata.__brk,"aw"
	.align	2
	.type	__brk, @object
	.size	__brk, 4
__brk:
	.word	metal_segment_heap_target_start
	.section	.text._brk,"ax",@progbits
	.align	1
	.globl	_brk
	.type	_brk, @function
_brk:
.LFB0:
	.file 1 "/home/gra2p/Documents/uva_courses/rp1/src/freedom-metal/gloss/sys_sbrk.c"
	.loc 1 19 22
	.cfi_startproc
	addi	sp,sp,-32
	.cfi_def_cfa_offset 32
	sw	s0,28(sp)
	.cfi_offset 8, -4
	addi	s0,sp,32
	.cfi_def_cfa 8, 0
	sw	a0,-20(s0)
	.loc 1 20 11
	lui	a5,%hi(__brk)
	lw	a4,-20(s0)
	sw	a4,%lo(__brk)(a5)
	.loc 1 21 12
	li	a5,0
	.loc 1 22 1
	mv	a0,a5
	lw	s0,28(sp)
	.cfi_restore 8
	.cfi_def_cfa 2, 32
	addi	sp,sp,32
	.cfi_def_cfa_offset 0
	jr	ra
	.cfi_endproc
.LFE0:
	.size	_brk, .-_brk
	.section	.text._sbrk,"ax",@progbits
	.align	1
	.globl	_sbrk
	.type	_sbrk, @function
_sbrk:
.LFB1:
	.loc 1 24 29
	.cfi_startproc
	addi	sp,sp,-48
	.cfi_def_cfa_offset 48
	sw	ra,44(sp)
	sw	s0,40(sp)
	.cfi_offset 1, -4
	.cfi_offset 8, -8
	addi	s0,sp,48
	.cfi_def_cfa 8, 0
	sw	a0,-36(s0)
	.loc 1 25 11
	lui	a5,%hi(__brk)
	lw	a5,%lo(__brk)(a5)
	sw	a5,-20(s0)
	.loc 1 28 8
	lui	a5,%hi(metal_segment_heap_target_start)
	addi	a4,a5,%lo(metal_segment_heap_target_start)
	lui	a5,%hi(metal_segment_heap_target_end)
	addi	a5,a5,%lo(metal_segment_heap_target_end)
	bne	a4,a5,.L4
	.loc 1 29 16
	li	a5,-1
	j	.L5
.L4:
	.loc 1 33 16
	lui	a5,%hi(__brk)
	lw	a4,%lo(__brk)(a5)
	lw	a5,-36(s0)
	add	a4,a4,a5
	.loc 1 33 8
	lui	a5,%hi(metal_segment_heap_target_end)
	addi	a5,a5,%lo(metal_segment_heap_target_end)
	bgeu	a4,a5,.L6
	.loc 1 34 15
	lui	a5,%hi(__brk)
	lw	a4,%lo(__brk)(a5)
	lw	a5,-36(s0)
	add	a4,a4,a5
	lui	a5,%hi(__brk)
	sw	a4,%lo(__brk)(a5)
	.loc 1 40 5
	lw	a1,-36(s0)
	lw	a0,-20(s0)
	call	metal_mem_scrub
	.loc 1 42 12
	lw	a5,-20(s0)
	j	.L5
.L6:
	.loc 1 36 15
	lui	a5,%hi(__brk)
	lui	a4,%hi(metal_segment_heap_target_end)
	addi	a4,a4,%lo(metal_segment_heap_target_end)
	sw	a4,%lo(__brk)(a5)
	.loc 1 37 16
	li	a5,-1
.L5:
	.loc 1 43 1
	mv	a0,a5
	lw	ra,44(sp)
	.cfi_restore 1
	lw	s0,40(sp)
	.cfi_restore 8
	.cfi_def_cfa 2, 48
	addi	sp,sp,48
	.cfi_def_cfa_offset 0
	jr	ra
	.cfi_endproc
.LFE1:
	.size	_sbrk, .-_sbrk
	.text
.Letext0:
	.file 2 "/home/gra2p/Documents/uva_courses/rp1/tools/riscv64-unknown-elf-toolchain-10.2.0-2020.12.8-x86_64-linux-ubuntu14/lib/gcc/riscv64-unknown-elf/10.2.0/include/stddef.h"